Archive member included because of file (symbol)

/home/andrew/bin/gcc-arm/bin/../lib/gcc/arm-none-eabi/4.9.3/armv7e-m/libgcc.a(_arm_addsubdf3.o)
                              build/seq_ctrl.c.o (__aeabi_dadd)
/home/andrew/bin/gcc-arm/bin/../lib/gcc/arm-none-eabi/4.9.3/armv7e-m/libgcc.a(_arm_muldivdf3.o)
                              build/seq_ctrl.c.o (__aeabi_dmul)
/home/andrew/bin/gcc-arm/bin/../lib/gcc/arm-none-eabi/4.9.3/armv7e-m/libgcc.a(_arm_cmpdf2.o)
                              build/song.c.o (__aeabi_dcmpgt)
/home/andrew/bin/gcc-arm/bin/../lib/gcc/arm-none-eabi/4.9.3/armv7e-m/libgcc.a(_arm_truncdfsf2.o)
                              build/seq_ctrl.c.o (__aeabi_d2f)
/home/andrew/bin/gcc-arm/bin/../lib/gcc/arm-none-eabi/4.9.3/armv7e-m/libgcc.a(_arm_addsubsf3.o)
                              build/ioctl.c.o (__aeabi_i2f)
/home/andrew/bin/gcc-arm/bin/../lib/gcc/arm-none-eabi/4.9.3/armv7e-m/libgcc.a(_arm_muldivsf3.o)
                              build/ioctl.c.o (__aeabi_fmul)
/home/andrew/bin/gcc-arm/bin/../lib/gcc/arm-none-eabi/4.9.3/armv7e-m/libgcc.a(_arm_cmpsf2.o)
                              build/song.c.o (__aeabi_fcmplt)
/home/andrew/bin/gcc-arm/bin/../lib/gcc/arm-none-eabi/4.9.3/armv7e-m/libgcc.a(_arm_fixsfsi.o)
                              build/ioctl.c.o (__aeabi_f2iz)
/home/andrew/bin/gcc-arm/bin/../lib/gcc/arm-none-eabi/4.9.3/armv7e-m/libgcc.a(_fixunsdfdi.o)
                              build/clock.c.o (__aeabi_d2ulz)
/home/andrew/bin/gcc-arm/bin/../lib/gcc/arm-none-eabi/4.9.3/armv7e-m/libgcc.a(_arm_fixunsdfsi.o)
                              /home/andrew/bin/gcc-arm/bin/../lib/gcc/arm-none-eabi/4.9.3/armv7e-m/libgcc.a(_fixunsdfdi.o) (__aeabi_d2uiz)
/home/andrew/bin/gcc-arm/bin/../lib/gcc/arm-none-eabi/4.9.3/../../../../arm-none-eabi/lib/armv7e-m/libc.a(lib_a-exit.o)
                              /home/andrew/bin/gcc-arm/bin/../lib/gcc/arm-none-eabi/4.9.3/../../../../arm-none-eabi/lib/armv7e-m/crt0.o (exit)
/home/andrew/bin/gcc-arm/bin/../lib/gcc/arm-none-eabi/4.9.3/../../../../arm-none-eabi/lib/armv7e-m/libc.a(lib_a-impure.o)
                              /home/andrew/bin/gcc-arm/bin/../lib/gcc/arm-none-eabi/4.9.3/../../../../arm-none-eabi/lib/armv7e-m/libc.a(lib_a-exit.o) (_global_impure_ptr)
/home/andrew/bin/gcc-arm/bin/../lib/gcc/arm-none-eabi/4.9.3/../../../../arm-none-eabi/lib/armv7e-m/libc.a(lib_a-init.o)
                              /home/andrew/bin/gcc-arm/bin/../lib/gcc/arm-none-eabi/4.9.3/../../../../arm-none-eabi/lib/armv7e-m/crt0.o (__libc_init_array)
/home/andrew/bin/gcc-arm/bin/../lib/gcc/arm-none-eabi/4.9.3/../../../../arm-none-eabi/lib/armv7e-m/libc.a(lib_a-malloc.o)
                              build/usbd_midi.c.o (malloc)
/home/andrew/bin/gcc-arm/bin/../lib/gcc/arm-none-eabi/4.9.3/../../../../arm-none-eabi/lib/armv7e-m/libc.a(lib_a-mallocr.o)
                              /home/andrew/bin/gcc-arm/bin/../lib/gcc/arm-none-eabi/4.9.3/../../../../arm-none-eabi/lib/armv7e-m/libc.a(lib_a-malloc.o) (_malloc_r)
/home/andrew/bin/gcc-arm/bin/../lib/gcc/arm-none-eabi/4.9.3/../../../../arm-none-eabi/lib/armv7e-m/libc.a(lib_a-memcpy.o)
                              build/gui.c.o (memcpy)
/home/andrew/bin/gcc-arm/bin/../lib/gcc/arm-none-eabi/4.9.3/../../../../arm-none-eabi/lib/armv7e-m/libc.a(lib_a-memset.o)
                              /home/andrew/bin/gcc-arm/bin/../lib/gcc/arm-none-eabi/4.9.3/../../../../arm-none-eabi/lib/armv7e-m/crt0.o (memset)
/home/andrew/bin/gcc-arm/bin/../lib/gcc/arm-none-eabi/4.9.3/../../../../arm-none-eabi/lib/armv7e-m/libc.a(lib_a-mlock.o)
                              /home/andrew/bin/gcc-arm/bin/../lib/gcc/arm-none-eabi/4.9.3/../../../../arm-none-eabi/lib/armv7e-m/libc.a(lib_a-mallocr.o) (__malloc_lock)
/home/andrew/bin/gcc-arm/bin/../lib/gcc/arm-none-eabi/4.9.3/../../../../arm-none-eabi/lib/armv7e-m/libc.a(lib_a-printf.o)
                              build/log.c.o (printf)
/home/andrew/bin/gcc-arm/bin/../lib/gcc/arm-none-eabi/4.9.3/../../../../arm-none-eabi/lib/armv7e-m/libc.a(lib_a-rand.o)
                              build/main.c.o (srand)
/home/andrew/bin/gcc-arm/bin/../lib/gcc/arm-none-eabi/4.9.3/../../../../arm-none-eabi/lib/armv7e-m/libc.a(lib_a-sbrkr.o)
                              /home/andrew/bin/gcc-arm/bin/../lib/gcc/arm-none-eabi/4.9.3/../../../../arm-none-eabi/lib/armv7e-m/libc.a(lib_a-mallocr.o) (_sbrk_r)
/home/andrew/bin/gcc-arm/bin/../lib/gcc/arm-none-eabi/4.9.3/../../../../arm-none-eabi/lib/armv7e-m/libc.a(lib_a-sprintf.o)
                              build/gui.c.o (sprintf)
/home/andrew/bin/gcc-arm/bin/../lib/gcc/arm-none-eabi/4.9.3/../../../../arm-none-eabi/lib/armv7e-m/libc.a(lib_a-strcmp.o)
                              build/gui.c.o (strcmp)
/home/andrew/bin/gcc-arm/bin/../lib/gcc/arm-none-eabi/4.9.3/../../../../arm-none-eabi/lib/armv7e-m/libc.a(lib_a-strcpy.o)
                              build/gui.c.o (strcpy)
/home/andrew/bin/gcc-arm/bin/../lib/gcc/arm-none-eabi/4.9.3/../../../../arm-none-eabi/lib/armv7e-m/libc.a(lib_a-strlen.o)
                              build/gfx.c.o (strlen)
/home/andrew/bin/gcc-arm/bin/../lib/gcc/arm-none-eabi/4.9.3/../../../../arm-none-eabi/lib/armv7e-m/libc.a(lib_a-svfprintf.o)
                              /home/andrew/bin/gcc-arm/bin/../lib/gcc/arm-none-eabi/4.9.3/../../../../arm-none-eabi/lib/armv7e-m/libc.a(lib_a-sprintf.o) (_svfprintf_r)
/home/andrew/bin/gcc-arm/bin/../lib/gcc/arm-none-eabi/4.9.3/../../../../arm-none-eabi/lib/armv7e-m/libc.a(lib_a-vfprintf.o)
                              /home/andrew/bin/gcc-arm/bin/../lib/gcc/arm-none-eabi/4.9.3/../../../../arm-none-eabi/lib/armv7e-m/libc.a(lib_a-printf.o) (_vfprintf_r)
/home/andrew/bin/gcc-arm/bin/../lib/gcc/arm-none-eabi/4.9.3/../../../../arm-none-eabi/lib/armv7e-m/libc.a(lib_a-vsprintf.o)
                              build/log.c.o (vsprintf)
/home/andrew/bin/gcc-arm/bin/../lib/gcc/arm-none-eabi/4.9.3/../../../../arm-none-eabi/lib/armv7e-m/libc.a(lib_a-wsetup.o)
                              /home/andrew/bin/gcc-arm/bin/../lib/gcc/arm-none-eabi/4.9.3/../../../../arm-none-eabi/lib/armv7e-m/libc.a(lib_a-vfprintf.o) (__swsetup_r)
/home/andrew/bin/gcc-arm/bin/../lib/gcc/arm-none-eabi/4.9.3/../../../../arm-none-eabi/lib/armv7e-m/libc.a(lib_a-__call_atexit.o)
                              /home/andrew/bin/gcc-arm/bin/../lib/gcc/arm-none-eabi/4.9.3/../../../../arm-none-eabi/lib/armv7e-m/libc.a(lib_a-exit.o) (__call_exitprocs)
/home/andrew/bin/gcc-arm/bin/../lib/gcc/arm-none-eabi/4.9.3/../../../../arm-none-eabi/lib/armv7e-m/libc.a(lib_a-atexit.o)
                              /home/andrew/bin/gcc-arm/bin/../lib/gcc/arm-none-eabi/4.9.3/../../../../arm-none-eabi/lib/armv7e-m/libc.a(lib_a-__call_atexit.o) (atexit)
/home/andrew/bin/gcc-arm/bin/../lib/gcc/arm-none-eabi/4.9.3/../../../../arm-none-eabi/lib/armv7e-m/libc.a(lib_a-dtoa.o)
                              /home/andrew/bin/gcc-arm/bin/../lib/gcc/arm-none-eabi/4.9.3/../../../../arm-none-eabi/lib/armv7e-m/libc.a(lib_a-svfprintf.o) (_dtoa_r)
/home/andrew/bin/gcc-arm/bin/../lib/gcc/arm-none-eabi/4.9.3/../../../../arm-none-eabi/lib/armv7e-m/libc.a(lib_a-fflush.o)
                              /home/andrew/bin/gcc-arm/bin/../lib/gcc/arm-none-eabi/4.9.3/../../../../arm-none-eabi/lib/armv7e-m/libc.a(lib_a-vfprintf.o) (_fflush_r)
/home/andrew/bin/gcc-arm/bin/../lib/gcc/arm-none-eabi/4.9.3/../../../../arm-none-eabi/lib/armv7e-m/libc.a(lib_a-findfp.o)
                              /home/andrew/bin/gcc-arm/bin/../lib/gcc/arm-none-eabi/4.9.3/../../../../arm-none-eabi/lib/armv7e-m/libc.a(lib_a-vfprintf.o) (__sinit)
/home/andrew/bin/gcc-arm/bin/../lib/gcc/arm-none-eabi/4.9.3/../../../../arm-none-eabi/lib/armv7e-m/libc.a(lib_a-fini.o)
                              /home/andrew/bin/gcc-arm/bin/../lib/gcc/arm-none-eabi/4.9.3/../../../../arm-none-eabi/lib/armv7e-m/libc.a(lib_a-__call_atexit.o) (__libc_fini_array)
/home/andrew/bin/gcc-arm/bin/../lib/gcc/arm-none-eabi/4.9.3/../../../../arm-none-eabi/lib/armv7e-m/libc.a(lib_a-freer.o)
                              /home/andrew/bin/gcc-arm/bin/../lib/gcc/arm-none-eabi/4.9.3/../../../../arm-none-eabi/lib/armv7e-m/libc.a(lib_a-malloc.o) (_free_r)
/home/andrew/bin/gcc-arm/bin/../lib/gcc/arm-none-eabi/4.9.3/../../../../arm-none-eabi/lib/armv7e-m/libc.a(lib_a-fwalk.o)
                              /home/andrew/bin/gcc-arm/bin/../lib/gcc/arm-none-eabi/4.9.3/../../../../arm-none-eabi/lib/armv7e-m/libc.a(lib_a-findfp.o) (_fwalk)
/home/andrew/bin/gcc-arm/bin/../lib/gcc/arm-none-eabi/4.9.3/../../../../arm-none-eabi/lib/armv7e-m/libc.a(lib_a-locale.o)
                              /home/andrew/bin/gcc-arm/bin/../lib/gcc/arm-none-eabi/4.9.3/../../../../arm-none-eabi/lib/armv7e-m/libc.a(lib_a-svfprintf.o) (_localeconv_r)
/home/andrew/bin/gcc-arm/bin/../lib/gcc/arm-none-eabi/4.9.3/../../../../arm-none-eabi/lib/armv7e-m/libc.a(lib_a-makebuf.o)
                              /home/andrew/bin/gcc-arm/bin/../lib/gcc/arm-none-eabi/4.9.3/../../../../arm-none-eabi/lib/armv7e-m/libc.a(lib_a-wsetup.o) (__smakebuf_r)
/home/andrew/bin/gcc-arm/bin/../lib/gcc/arm-none-eabi/4.9.3/../../../../arm-none-eabi/lib/armv7e-m/libc.a(lib_a-memchr.o)
                              /home/andrew/bin/gcc-arm/bin/../lib/gcc/arm-none-eabi/4.9.3/../../../../arm-none-eabi/lib/armv7e-m/libc.a(lib_a-svfprintf.o) (memchr)
/home/andrew/bin/gcc-arm/bin/../lib/gcc/arm-none-eabi/4.9.3/../../../../arm-none-eabi/lib/armv7e-m/libc.a(lib_a-mprec.o)
                              /home/andrew/bin/gcc-arm/bin/../lib/gcc/arm-none-eabi/4.9.3/../../../../arm-none-eabi/lib/armv7e-m/libc.a(lib_a-dtoa.o) (_Balloc)
/home/andrew/bin/gcc-arm/bin/../lib/gcc/arm-none-eabi/4.9.3/../../../../arm-none-eabi/lib/armv7e-m/libc.a(lib_a-reent.o)
                              /home/andrew/bin/gcc-arm/bin/../lib/gcc/arm-none-eabi/4.9.3/../../../../arm-none-eabi/lib/armv7e-m/libc.a(lib_a-sbrkr.o) (errno)
/home/andrew/bin/gcc-arm/bin/../lib/gcc/arm-none-eabi/4.9.3/../../../../arm-none-eabi/lib/armv7e-m/libc.a(lib_a-s_fpclassify.o)
                              /home/andrew/bin/gcc-arm/bin/../lib/gcc/arm-none-eabi/4.9.3/../../../../arm-none-eabi/lib/armv7e-m/libc.a(lib_a-svfprintf.o) (__fpclassifyd)
/home/andrew/bin/gcc-arm/bin/../lib/gcc/arm-none-eabi/4.9.3/../../../../arm-none-eabi/lib/armv7e-m/libc.a(lib_a-stdio.o)
                              /home/andrew/bin/gcc-arm/bin/../lib/gcc/arm-none-eabi/4.9.3/../../../../arm-none-eabi/lib/armv7e-m/libc.a(lib_a-findfp.o) (__sread)
/home/andrew/bin/gcc-arm/bin/../lib/gcc/arm-none-eabi/4.9.3/../../../../arm-none-eabi/lib/armv7e-m/libc.a(lib_a-svfiprintf.o)
                              /home/andrew/bin/gcc-arm/bin/../lib/gcc/arm-none-eabi/4.9.3/../../../../arm-none-eabi/lib/armv7e-m/libc.a(lib_a-svfprintf.o) (__ssprint_r)
/home/andrew/bin/gcc-arm/bin/../lib/gcc/arm-none-eabi/4.9.3/../../../../arm-none-eabi/lib/armv7e-m/libc.a(lib_a-vfiprintf.o)
                              /home/andrew/bin/gcc-arm/bin/../lib/gcc/arm-none-eabi/4.9.3/../../../../arm-none-eabi/lib/armv7e-m/libc.a(lib_a-vfprintf.o) (__sprint_r)
/home/andrew/bin/gcc-arm/bin/../lib/gcc/arm-none-eabi/4.9.3/../../../../arm-none-eabi/lib/armv7e-m/libc.a(lib_a-writer.o)
                              /home/andrew/bin/gcc-arm/bin/../lib/gcc/arm-none-eabi/4.9.3/../../../../arm-none-eabi/lib/armv7e-m/libc.a(lib_a-stdio.o) (_write_r)
/home/andrew/bin/gcc-arm/bin/../lib/gcc/arm-none-eabi/4.9.3/../../../../arm-none-eabi/lib/armv7e-m/libc.a(lib_a-__atexit.o)
                              /home/andrew/bin/gcc-arm/bin/../lib/gcc/arm-none-eabi/4.9.3/../../../../arm-none-eabi/lib/armv7e-m/libc.a(lib_a-atexit.o) (__register_exitproc)
/home/andrew/bin/gcc-arm/bin/../lib/gcc/arm-none-eabi/4.9.3/../../../../arm-none-eabi/lib/armv7e-m/libc.a(lib_a-callocr.o)
                              /home/andrew/bin/gcc-arm/bin/../lib/gcc/arm-none-eabi/4.9.3/../../../../arm-none-eabi/lib/armv7e-m/libc.a(lib_a-mprec.o) (_calloc_r)
/home/andrew/bin/gcc-arm/bin/../lib/gcc/arm-none-eabi/4.9.3/../../../../arm-none-eabi/lib/armv7e-m/libc.a(lib_a-closer.o)
                              /home/andrew/bin/gcc-arm/bin/../lib/gcc/arm-none-eabi/4.9.3/../../../../arm-none-eabi/lib/armv7e-m/libc.a(lib_a-stdio.o) (_close_r)
/home/andrew/bin/gcc-arm/bin/../lib/gcc/arm-none-eabi/4.9.3/../../../../arm-none-eabi/lib/armv7e-m/libc.a(lib_a-fclose.o)
                              /home/andrew/bin/gcc-arm/bin/../lib/gcc/arm-none-eabi/4.9.3/../../../../arm-none-eabi/lib/armv7e-m/libc.a(lib_a-findfp.o) (_fclose_r)
/home/andrew/bin/gcc-arm/bin/../lib/gcc/arm-none-eabi/4.9.3/../../../../arm-none-eabi/lib/armv7e-m/libc.a(lib_a-fputwc.o)
                              /home/andrew/bin/gcc-arm/bin/../lib/gcc/arm-none-eabi/4.9.3/../../../../arm-none-eabi/lib/armv7e-m/libc.a(lib_a-vfiprintf.o) (_fputwc_r)
/home/andrew/bin/gcc-arm/bin/../lib/gcc/arm-none-eabi/4.9.3/../../../../arm-none-eabi/lib/armv7e-m/libc.a(lib_a-fstatr.o)
                              /home/andrew/bin/gcc-arm/bin/../lib/gcc/arm-none-eabi/4.9.3/../../../../arm-none-eabi/lib/armv7e-m/libc.a(lib_a-makebuf.o) (_fstat_r)
/home/andrew/bin/gcc-arm/bin/../lib/gcc/arm-none-eabi/4.9.3/../../../../arm-none-eabi/lib/armv7e-m/libc.a(lib_a-fvwrite.o)
                              /home/andrew/bin/gcc-arm/bin/../lib/gcc/arm-none-eabi/4.9.3/../../../../arm-none-eabi/lib/armv7e-m/libc.a(lib_a-vfiprintf.o) (__sfvwrite_r)
/home/andrew/bin/gcc-arm/bin/../lib/gcc/arm-none-eabi/4.9.3/../../../../arm-none-eabi/lib/armv7e-m/libc.a(lib_a-isattyr.o)
                              /home/andrew/bin/gcc-arm/bin/../lib/gcc/arm-none-eabi/4.9.3/../../../../arm-none-eabi/lib/armv7e-m/libc.a(lib_a-makebuf.o) (_isatty_r)
/home/andrew/bin/gcc-arm/bin/../lib/gcc/arm-none-eabi/4.9.3/../../../../arm-none-eabi/lib/armv7e-m/libc.a(lib_a-lseekr.o)
                              /home/andrew/bin/gcc-arm/bin/../lib/gcc/arm-none-eabi/4.9.3/../../../../arm-none-eabi/lib/armv7e-m/libc.a(lib_a-stdio.o) (_lseek_r)
/home/andrew/bin/gcc-arm/bin/../lib/gcc/arm-none-eabi/4.9.3/../../../../arm-none-eabi/lib/armv7e-m/libc.a(lib_a-memmove.o)
                              /home/andrew/bin/gcc-arm/bin/../lib/gcc/arm-none-eabi/4.9.3/../../../../arm-none-eabi/lib/armv7e-m/libc.a(lib_a-svfiprintf.o) (memmove)
/home/andrew/bin/gcc-arm/bin/../lib/gcc/arm-none-eabi/4.9.3/../../../../arm-none-eabi/lib/armv7e-m/libc.a(lib_a-readr.o)
                              /home/andrew/bin/gcc-arm/bin/../lib/gcc/arm-none-eabi/4.9.3/../../../../arm-none-eabi/lib/armv7e-m/libc.a(lib_a-stdio.o) (_read_r)
/home/andrew/bin/gcc-arm/bin/../lib/gcc/arm-none-eabi/4.9.3/../../../../arm-none-eabi/lib/armv7e-m/libc.a(lib_a-reallocr.o)
                              /home/andrew/bin/gcc-arm/bin/../lib/gcc/arm-none-eabi/4.9.3/../../../../arm-none-eabi/lib/armv7e-m/libc.a(lib_a-svfiprintf.o) (_realloc_r)
/home/andrew/bin/gcc-arm/bin/../lib/gcc/arm-none-eabi/4.9.3/../../../../arm-none-eabi/lib/armv7e-m/libc.a(lib_a-wbuf.o)
                              /home/andrew/bin/gcc-arm/bin/../lib/gcc/arm-none-eabi/4.9.3/../../../../arm-none-eabi/lib/armv7e-m/libc.a(lib_a-fputwc.o) (__swbuf_r)
/home/andrew/bin/gcc-arm/bin/../lib/gcc/arm-none-eabi/4.9.3/../../../../arm-none-eabi/lib/armv7e-m/libc.a(lib_a-wcrtomb.o)
                              /home/andrew/bin/gcc-arm/bin/../lib/gcc/arm-none-eabi/4.9.3/../../../../arm-none-eabi/lib/armv7e-m/libc.a(lib_a-fputwc.o) (_wcrtomb_r)
/home/andrew/bin/gcc-arm/bin/../lib/gcc/arm-none-eabi/4.9.3/../../../../arm-none-eabi/lib/armv7e-m/libc.a(lib_a-wctomb_r.o)
                              /home/andrew/bin/gcc-arm/bin/../lib/gcc/arm-none-eabi/4.9.3/../../../../arm-none-eabi/lib/armv7e-m/libc.a(lib_a-wcrtomb.o) (__wctomb)
/home/andrew/bin/gcc-arm/bin/../lib/gcc/arm-none-eabi/4.9.3/armv7e-m/libgcc.a(_arm_fixdfsi.o)
                              /home/andrew/bin/gcc-arm/bin/../lib/gcc/arm-none-eabi/4.9.3/../../../../arm-none-eabi/lib/armv7e-m/libc.a(lib_a-dtoa.o) (__aeabi_d2iz)
/home/andrew/bin/gcc-arm/bin/../lib/gcc/arm-none-eabi/4.9.3/armv7e-m/libgcc.a(_aeabi_uldivmod.o)
                              /home/andrew/bin/gcc-arm/bin/../lib/gcc/arm-none-eabi/4.9.3/../../../../arm-none-eabi/lib/armv7e-m/libc.a(lib_a-svfprintf.o) (__aeabi_uldivmod)
/home/andrew/bin/gcc-arm/bin/../lib/gcc/arm-none-eabi/4.9.3/armv7e-m/libgcc.a(bpabi.o)
                              /home/andrew/bin/gcc-arm/bin/../lib/gcc/arm-none-eabi/4.9.3/armv7e-m/libgcc.a(_aeabi_uldivmod.o) (__gnu_uldivmod_helper)
/home/andrew/bin/gcc-arm/bin/../lib/gcc/arm-none-eabi/4.9.3/armv7e-m/libgcc.a(_dvmd_tls.o)
                              /home/andrew/bin/gcc-arm/bin/../lib/gcc/arm-none-eabi/4.9.3/armv7e-m/libgcc.a(_aeabi_uldivmod.o) (__aeabi_ldiv0)
/home/andrew/bin/gcc-arm/bin/../lib/gcc/arm-none-eabi/4.9.3/armv7e-m/libgcc.a(_divdi3.o)
                              /home/andrew/bin/gcc-arm/bin/../lib/gcc/arm-none-eabi/4.9.3/armv7e-m/libgcc.a(bpabi.o) (__divdi3)
/home/andrew/bin/gcc-arm/bin/../lib/gcc/arm-none-eabi/4.9.3/armv7e-m/libgcc.a(_udivdi3.o)
                              /home/andrew/bin/gcc-arm/bin/../lib/gcc/arm-none-eabi/4.9.3/armv7e-m/libgcc.a(bpabi.o) (__udivdi3)
/home/andrew/bin/gcc-arm/bin/../lib/gcc/arm-none-eabi/4.9.3/../../../../arm-none-eabi/lib/armv7e-m/libnosys.a(close.o)
                              /home/andrew/bin/gcc-arm/bin/../lib/gcc/arm-none-eabi/4.9.3/../../../../arm-none-eabi/lib/armv7e-m/libc.a(lib_a-closer.o) (_close)
/home/andrew/bin/gcc-arm/bin/../lib/gcc/arm-none-eabi/4.9.3/../../../../arm-none-eabi/lib/armv7e-m/libnosys.a(fstat.o)
                              /home/andrew/bin/gcc-arm/bin/../lib/gcc/arm-none-eabi/4.9.3/../../../../arm-none-eabi/lib/armv7e-m/libc.a(lib_a-fstatr.o) (_fstat)
/home/andrew/bin/gcc-arm/bin/../lib/gcc/arm-none-eabi/4.9.3/../../../../arm-none-eabi/lib/armv7e-m/libnosys.a(isatty.o)
                              /home/andrew/bin/gcc-arm/bin/../lib/gcc/arm-none-eabi/4.9.3/../../../../arm-none-eabi/lib/armv7e-m/libc.a(lib_a-isattyr.o) (_isatty)
/home/andrew/bin/gcc-arm/bin/../lib/gcc/arm-none-eabi/4.9.3/../../../../arm-none-eabi/lib/armv7e-m/libnosys.a(lseek.o)
                              /home/andrew/bin/gcc-arm/bin/../lib/gcc/arm-none-eabi/4.9.3/../../../../arm-none-eabi/lib/armv7e-m/libc.a(lib_a-lseekr.o) (_lseek)
/home/andrew/bin/gcc-arm/bin/../lib/gcc/arm-none-eabi/4.9.3/../../../../arm-none-eabi/lib/armv7e-m/libnosys.a(read.o)
                              /home/andrew/bin/gcc-arm/bin/../lib/gcc/arm-none-eabi/4.9.3/../../../../arm-none-eabi/lib/armv7e-m/libc.a(lib_a-readr.o) (_read)
/home/andrew/bin/gcc-arm/bin/../lib/gcc/arm-none-eabi/4.9.3/../../../../arm-none-eabi/lib/armv7e-m/libnosys.a(sbrk.o)
                              /home/andrew/bin/gcc-arm/bin/../lib/gcc/arm-none-eabi/4.9.3/../../../../arm-none-eabi/lib/armv7e-m/libc.a(lib_a-sbrkr.o) (_sbrk)
/home/andrew/bin/gcc-arm/bin/../lib/gcc/arm-none-eabi/4.9.3/../../../../arm-none-eabi/lib/armv7e-m/libnosys.a(_exit.o)
                              /home/andrew/bin/gcc-arm/bin/../lib/gcc/arm-none-eabi/4.9.3/../../../../arm-none-eabi/lib/armv7e-m/libc.a(lib_a-exit.o) (_exit)

Allocating common symbols
Common symbol       size              file

spi_rx_half_cplt_cb
                    0xc               build/spi_callbacks.c.o
din_midi1_handle    0x40              build/din_midi.c.o
panel_if_blink_state
                    0x40              build/panel_if.c.o
sedits              0x34              build/step_edit.c.o
aprog               0x318             build/arp_progs.c.o
tempstr             0x40              build/gui.c.o
din_midi_tx1_done   0x4               build/din_midi.c.o
usbh_rxbuf          0x40              build/usbh_midi.c.o
usbd_midi_tx_q      0x100             build/usbd_midi.c.o
spi_flash_spi_handle
                    0x58              build/spi_flash.c.o
hUSBHost            0x2c8             build/usbh_midi.c.o
errno               0x4               /home/andrew/bin/gcc-arm/bin/../lib/gcc/arm-none-eabi/4.9.3/../../../../arm-none-eabi/lib/armv7e-m/libc.a(lib_a-reent.o)
din_midi_rx_inp     0x4               build/din_midi.c.o
opstate             0x330             build/outproc.c.o
spi_handle          0xc               build/spi_callbacks.c.o
din_midi1_dma_tx_handle
                    0x58              build/din_midi.c.o
patterns            0x100             build/pattern.c.o
din_midi_tx2_buf    0x10              build/din_midi.c.o
usbh_txbuf          0x40              build/usbh_midi.c.o
din_midi_rx_outp    0x4               build/din_midi.c.o
song                0x5000            build/song.c.o
pstate              0x838             build/panel.c.o
lcd_timing          0x1c              build/lcd_fsmc_if.c.o
startup_wait        0x4               build/main.c.o
uwTick              0x4               build/stm32f4xx_hal.c.o
lcd_cmd_data        0x40              build/lcd_drv.c.o
sw_state            0xc0              build/switch_filter.c.o
usbd_midi_tx_q_inp  0x4               build/usbd_midi.c.o
cvstate             0x484             build/cvproc.c.o
midi_stream_queue_inp
                    0x34              build/midi_stream.c.o
pFlash              0x20              build/stm32f4xx_hal_flash.c.o
panel_if_led_fb     0x20              build/panel_if.c.o
ios                 0x10              build/ioctl.c.o
mnstate             0x18              build/metronome.c.o
ioctl_adc_handle    0x48              build/ioctl.c.o
midi_stream_send_byte_state
                    0xd               build/midi_stream.c.o
panel_if_blink      0x40              build/panel_if.c.o
delay_count         0x4               build/delay.c.o
switch_sw_debounce  0x4               build/switch_filter.c.o
usbd_midi_tx_q_outp
                    0x4               build/usbd_midi.c.o
spi_init_cb         0xc               build/spi_callbacks.c.o
lcd_sram            0x48              build/lcd_fsmc_if.c.o
USBD_Device         0x224             build/usbd_midi.c.o
usbdev_handle       0x3b8             build/usbd_conf.c.o
din_midi2_dma_tx_handle
                    0x58              build/din_midi.c.o
usbd_midi_tx_buf    0x100             build/usbd_midi.c.o
switch_enc_timeout  0x4               build/switch_filter.c.o
din_midi_rx1_buf    0x10              build/din_midi.c.o
din_midi2_handle    0x40              build/din_midi.c.o
astate              0x330             build/arp.c.o
panel_spi_rx_buf    0x4               build/panel_if.c.o
schstate            0x800             build/state_change.c.o
midi_stream_queue_outp
                    0x34              build/midi_stream.c.o
pmstate             0x14              build/panel_menu.c.o
aout_spi_handle     0x58              build/analog_out.c.o
sflashs             0x248             build/spi_flash.c.o
switch_sw_timeout   0x4               build/switch_filter.c.o
syxs                0x10d8            build/sysex.c.o
pwrs                0x8               build/power_ctrl.c.o
din_midi_tx1_buf    0x10              build/din_midi.c.o
spi_error_cb        0xc               build/spi_callbacks.c.o
panel_spi_handle    0x58              build/panel_if.c.o
clks                0xc0              build/clock.c.o
clkouts             0x14              build/clock_out.c.o
ifacemrs            0x6               build/iface_midi_router.c.o
switch_event_outp   0x4               build/switch_filter.c.o
sestate             0x3624            build/seq_engine.c.o
spi_txrx_half_cplt_cb
                    0xc               build/spi_callbacks.c.o
spi_tx_cplt_cb      0xc               build/spi_callbacks.c.o
lcd_cmd_data_count  0x4               build/lcd_drv.c.o
din_midi_tx2_done   0x4               build/din_midi.c.o
aprog_load_track    0x4               build/arp_progs.c.o
hhcd                0x298             build/usbh_conf.c.o
spi_rx_cplt_cb      0xc               build/spi_callbacks.c.o
songs               0x8               build/song.c.o
extfs               0x1c              build/ext_flash.c.o
sstate              0x30              build/seq_ctrl.c.o
lcd_cmd             0x1               build/lcd_drv.c.o
sngedits            0x10              build/song_edit.c.o
switch_event_inp    0x4               build/switch_filter.c.o
USBD_StrDesc        0x100             build/usbd_midi.c.o
aouts               0x2c              build/analog_out.c.o
usbd_midi_rx_buf    0x100             build/usbd_midi.c.o
din_midi1_dma_rx_handle
                    0x58              build/din_midi.c.o
TimHandle           0x3c              build/stm32f4xx_hal_timebase_tim_template.c.o
usbh_task_timer     0x3c              build/usbh_midi.c.o
switch_event_queue  0x80              build/switch_filter.c.o
spi_tx_half_cplt_cb
                    0xc               build/spi_callbacks.c.o
log_str             0x400             build/log.c.o
spi_txrx_cplt_cb    0xc               build/spi_callbacks.c.o

Memory Configuration

Name             Origin             Length             Attributes
VECTOR           0x08000000         0x00004000         xr
FLASH            0x08004000         0x0007c000         xr
RAM              0x20000000         0x00020000         xrw
CCMRAM           0x10000000         0x00010000         rw
*default*        0x00000000         0xffffffff

Linker script and memory map

LOAD /home/andrew/bin/gcc-arm/bin/../lib/gcc/arm-none-eabi/4.9.3/armv7e-m/crti.o
LOAD /home/andrew/bin/gcc-arm/bin/../lib/gcc/arm-none-eabi/4.9.3/armv7e-m/crtbegin.o
LOAD /home/andrew/bin/gcc-arm/bin/../lib/gcc/arm-none-eabi/4.9.3/../../../../arm-none-eabi/lib/armv7e-m/crt0.o
LOAD build/usbh_pipes.c.o
LOAD build/usbh_ctlreq.c.o
LOAD build/usbh_ioreq.c.o
LOAD build/usbh_core.c.o
LOAD build/usbd_ioreq.c.o
LOAD build/usbd_core.c.o
LOAD build/usbd_ctlreq.c.o
LOAD build/usbd_midi.c.o
LOAD build/usbd_conf.c.o
LOAD build/power_ctrl.c.o
LOAD build/stm32f4xx_it.c.o
LOAD build/main.c.o
LOAD build/switch_filter.c.o
LOAD build/panel_if.c.o
LOAD build/analog_out.c.o
LOAD build/debug.c.o
LOAD build/cvproc.c.o
LOAD build/stm32f4xx_hal_msp.c.o
LOAD build/gfx.c.o
LOAD build/ioctl.c.o
LOAD build/lcd_fsmc_if.c.o
LOAD build/ILI948x_drv.c.o
LOAD build/font_sinclair_8x8.c.o
LOAD build/font_system_8x12.c.o
LOAD build/gui.c.o
LOAD build/panel_menu.c.o
LOAD build/panel.c.o
LOAD build/step_edit.c.o
LOAD build/song_edit.c.o
LOAD build/config_store.c.o
LOAD build/midi_stream.c.o
LOAD build/midi_utils.c.o
LOAD build/log.c.o
LOAD build/time_utils.c.o
LOAD build/panel_utils.c.o
LOAD build/state_change.c.o
LOAD build/seq_utils.c.o
LOAD build/system_stm32f4xx.c.o
LOAD build/startup_stm32f407xx.s.o
LOAD build/lcd_drv.c.o
LOAD build/spi_flash.c.o
LOAD build/iface_midi_router.c.o
LOAD build/iface_panel.c.o
LOAD build/usbh_midi.c.o
LOAD build/usbh_conf.c.o
LOAD build/delay.c.o
LOAD build/metronome.c.o
LOAD build/sysex.c.o
LOAD build/midi_ctrl.c.o
LOAD build/pattern.c.o
LOAD build/arp.c.o
LOAD build/seq_ctrl.c.o
LOAD build/arp_progs.c.o
LOAD build/clock.c.o
LOAD build/clock_out.c.o
LOAD build/scale.c.o
LOAD build/seq_engine.c.o
LOAD build/song.c.o
LOAD build/outproc.c.o
LOAD build/spi_callbacks.c.o
LOAD build/ext_flash.c.o
LOAD build/din_midi.c.o
LOAD build/stm32f4xx_hal_dma_ex.c.o
LOAD build/stm32f4xx_hal_sai.c.o
LOAD build/stm32f4xx_hal_timebase_tim_template.c.o
LOAD build/stm32f4xx_hal_fmpi2c.c.o
LOAD build/stm32f4xx_hal_hcd.c.o
LOAD build/stm32f4xx_hal_nor.c.o
LOAD build/stm32f4xx_hal_smartcard.c.o
LOAD build/stm32f4xx_hal_hash_ex.c.o
LOAD build/stm32f4xx_hal_adc_ex.c.o
LOAD build/stm32f4xx_hal_spi.c.o
LOAD build/stm32f4xx_hal_tim_ex.c.o
LOAD build/stm32f4xx_hal_ltdc.c.o
LOAD build/stm32f4xx_hal_qspi.c.o
LOAD build/stm32f4xx_hal_nand.c.o
LOAD build/stm32f4xx_hal_tim.c.o
LOAD build/stm32f4xx_hal_dsi.c.o
LOAD build/stm32f4xx_hal_cryp_ex.c.o
LOAD build/stm32f4xx_ll_fmc.c.o
LOAD build/stm32f4xx_hal_pcd.c.o
LOAD build/stm32f4xx_hal_gpio.c.o
LOAD build/stm32f4xx_hal_pcd_ex.c.o
LOAD build/stm32f4xx_hal_pwr.c.o
LOAD build/stm32f4xx_hal_dac.c.o
LOAD build/stm32f4xx_hal_i2c_ex.c.o
LOAD build/stm32f4xx_hal_can.c.o
LOAD build/stm32f4xx_hal_rng.c.o
LOAD build/stm32f4xx_hal_uart.c.o
LOAD build/stm32f4xx_hal_fmpi2c_ex.c.o
LOAD build/stm32f4xx_hal_flash_ex.c.o
LOAD build/stm32f4xx_hal_ltdc_ex.c.o
LOAD build/stm32f4xx_hal_sram.c.o
LOAD build/stm32f4xx_hal_sd.c.o
LOAD build/stm32f4xx_hal_pccard.c.o
LOAD build/stm32f4xx_hal_hash.c.o
LOAD build/stm32f4xx_hal_dcmi_ex.c.o
LOAD build/stm32f4xx_ll_sdmmc.c.o
LOAD build/stm32f4xx_hal.c.o
LOAD build/stm32f4xx_hal_i2s.c.o
LOAD build/stm32f4xx_hal_wwdg.c.o
LOAD build/stm32f4xx_hal_iwdg.c.o
LOAD build/stm32f4xx_hal_pwr_ex.c.o
LOAD build/stm32f4xx_hal_eth.c.o
LOAD build/stm32f4xx_hal_dma2d.c.o
LOAD build/stm32f4xx_hal_crc.c.o
LOAD build/stm32f4xx_hal_spdifrx.c.o
LOAD build/stm32f4xx_hal_rtc_ex.c.o
LOAD build/stm32f4xx_hal_cec.c.o
LOAD build/stm32f4xx_hal_dcmi.c.o
LOAD build/stm32f4xx_hal_lptim.c.o
LOAD build/stm32f4xx_hal_irda.c.o
LOAD build/stm32f4xx_ll_fsmc.c.o
LOAD build/stm32f4xx_hal_i2s_ex.c.o
LOAD build/stm32f4xx_ll_usb.c.o
LOAD build/stm32f4xx_hal_sdram.c.o
LOAD build/stm32f4xx_hal_rcc_ex.c.o
LOAD build/stm32f4xx_hal_sai_ex.c.o
LOAD build/stm32f4xx_hal_dma.c.o
LOAD build/stm32f4xx_hal_rcc.c.o
LOAD build/stm32f4xx_hal_cortex.c.o
LOAD build/stm32f4xx_hal_i2c.c.o
LOAD build/stm32f4xx_hal_rtc.c.o
LOAD build/stm32f4xx_hal_cryp.c.o
LOAD build/stm32f4xx_hal_dac_ex.c.o
LOAD build/stm32f4xx_hal_flash.c.o
LOAD build/stm32f4xx_hal_adc.c.o
LOAD build/stm32f4xx_hal_flash_ramfunc.c.o
LOAD build/stm32f4xx_hal_usart.c.o
START GROUP
LOAD /home/andrew/bin/gcc-arm/bin/../lib/gcc/arm-none-eabi/4.9.3/armv7e-m/libgcc.a
LOAD /home/andrew/bin/gcc-arm/bin/../lib/gcc/arm-none-eabi/4.9.3/../../../../arm-none-eabi/lib/armv7e-m/libc.a
END GROUP
START GROUP
LOAD /home/andrew/bin/gcc-arm/bin/../lib/gcc/arm-none-eabi/4.9.3/armv7e-m/libgcc.a
LOAD /home/andrew/bin/gcc-arm/bin/../lib/gcc/arm-none-eabi/4.9.3/../../../../arm-none-eabi/lib/armv7e-m/libc.a
LOAD /home/andrew/bin/gcc-arm/bin/../lib/gcc/arm-none-eabi/4.9.3/../../../../arm-none-eabi/lib/armv7e-m/libnosys.a
END GROUP
LOAD /home/andrew/bin/gcc-arm/bin/../lib/gcc/arm-none-eabi/4.9.3/armv7e-m/crtend.o
LOAD /home/andrew/bin/gcc-arm/bin/../lib/gcc/arm-none-eabi/4.9.3/armv7e-m/crtn.o
                0x2001ffff                //_estack = 0x2001ffff
                0x1000ffff                _estack = 0x1000ffff
                0x00000200                _Min_Heap_Size = 0x200
                0x00000400                _Min_Stack_Size = 0x400

.isr_vector     0x08000000      0x188
                0x08000000                . = ALIGN (0x4)
 *(.isr_vector)
 .isr_vector    0x08000000      0x188 build/startup_stm32f407xx.s.o
                0x08000000                g_pfnVectors
                0x08000188                . = ALIGN (0x4)

.text           0x08004000    0x2f564
                0x08004000                . = ALIGN (0x4)
 *(.text)
 .text          0x08004000        0x0 /home/andrew/bin/gcc-arm/bin/../lib/gcc/arm-none-eabi/4.9.3/armv7e-m/crti.o
 .text          0x08004000       0x5c /home/andrew/bin/gcc-arm/bin/../lib/gcc/arm-none-eabi/4.9.3/armv7e-m/crtbegin.o
 .text          0x0800405c       0x74 /home/andrew/bin/gcc-arm/bin/../lib/gcc/arm-none-eabi/4.9.3/../../../../arm-none-eabi/lib/armv7e-m/crt0.o
                0x0800405c                _mainCRTStartup
                0x0800405c                _start
 .text          0x080040d0       0x74 build/usbh_pipes.c.o
                0x080040d0                USBH_OpenPipe
                0x080040f0                USBH_ClosePipe
                0x080040fc                USBH_AllocPipe
                0x0800412c                USBH_FreePipe
 .text          0x08004144      0x4dc build/usbh_ctlreq.c.o
                0x08004144                USBH_GetNextDesc
                0x08004154                USBH_CtlReq
                0x08004304                USBH_GetDescriptor
                0x0800433c                USBH_Get_DevDesc
                0x080043f8                USBH_Get_CfgDesc
                0x08004540                USBH_Get_StringDesc
                0x08004594                USBH_SetAddress
                0x080045b0                USBH_SetCfg
                0x080045cc                USBH_SetInterface
                0x080045f4                USBH_ClrFeature
 .text          0x08004620      0x13c build/usbh_ioreq.c.o
                0x08004620                USBH_CtlSendSetup
                0x08004640                USBH_CtlSendData
                0x0800466c                USBH_CtlReceiveData
                0x0800468c                USBH_BulkSendData
                0x080046b8                USBH_BulkReceiveData
                0x080046d8                USBH_InterruptReceiveData
                0x080046f8                USBH_InterruptSendData
                0x08004718                USBH_IsocReceiveData
                0x08004738                USBH_IsocSendData
 .text          0x0800475c      0x55c build/usbh_core.c.o
                0x0800475c                USBH_Init
                0x080047c4                USBH_DeInit
                0x08004820                USBH_RegisterClass
                0x08004844                USBH_SelectInterface
                0x08004858                USBH_GetActiveClass
                0x08004860                USBH_FindInterface
                0x080048a4                USBH_FindInterfaceIndex
                0x080048d4                USBH_Start
                0x080048e8                USBH_Stop
                0x0800490c                USBH_ReEnumerate
                0x08004970                USBH_Process
                0x08004c30                USBH_LL_SetTimer
                0x08004c38                USBH_LL_IncTimer
                0x08004c58                USBH_LL_Connect
                0x08004c80                USBH_LL_Disconnect
 .text          0x08004cb8       0x98 build/usbd_ioreq.c.o
                0x08004cb8                USBD_CtlSendData
                0x08004cd4                USBD_CtlContinueSendData
                0x08004ce4                USBD_CtlPrepareRx
                0x08004d04                USBD_CtlContinueRx
                0x08004d14                USBD_CtlSendStatus
                0x08004d2c                USBD_CtlReceiveStatus
                0x08004d44                USBD_GetRxCount
 .text          0x08004d50      0x2cc build/usbd_core.c.o
                0x08004d50                USBD_Init
                0x08004d7c                USBD_DeInit
                0x08004da0                USBD_RegisterClass
                0x08004db0                USBD_Start
                0x08004dbc                USBD_Stop
                0x08004dd4                USBD_RunTestMode
                0x08004dd8                USBD_SetClassConfig
                0x08004dec                USBD_ClrClassConfig
                0x08004dfc                USBD_LL_SetupStage
                0x08004e5c                USBD_LL_DataOutStage
                0x08004ec8                USBD_LL_DataInStage
                0x08004f6c                USBD_LL_Reset
                0x08004fac                USBD_LL_SetSpeed
                0x08004fb4                USBD_LL_Suspend
                0x08004fc8                USBD_LL_Resume
                0x08004fd8                USBD_LL_SOF
                0x08004ff8                USBD_LL_IsoINIncomplete
                0x08004ffc                USBD_LL_IsoOUTIncomplete
                0x08005000                USBD_LL_DevConnected
                0x08005004                USBD_LL_DevDisconnected
 .text          0x0800501c      0x44c build/usbd_ctlreq.c.o
                0x0800501c                USBD_StdDevReq
                0x080052d0                USBD_StdItfReq
                0x0800530c                USBD_StdEPReq
                0x080053dc                USBD_ParseSetupRequest
                0x08005404                USBD_CtlError
                0x0800541c                USBD_GetString
 .text          0x08005468      0x508 build/usbd_midi.c.o
                0x08005478                USBD_MIDI_DeviceDescriptor
                0x08005484                USBD_MIDI_LangIDStrDescriptor
                0x080054c4                USBD_MIDI_SerialStrDescriptor
                0x08005688                USBD_MIDI_ManufacturerStrDescriptor
                0x080056a4                USBD_MIDI_ProductStrDescriptor
                0x080056c0                USBD_MIDI_ConfigStrDescriptor
                0x080056dc                USBD_MIDI_InterfaceStrDescriptor
                0x080056f8                usbd_midi_init
                0x08005738                usbd_midi_timer_task
                0x080058b0                usbd_midi_prepare_in_ep
 .text          0x08005970      0x3f8 build/usbd_conf.c.o
                0x08005970                HAL_PCD_MspInit
                0x08005b58                HAL_PCD_MspDeInit
                0x08005b98                HAL_PCD_SetupStageCallback
                0x08005ba4                HAL_PCD_DataOutStageCallback
                0x08005bb8                HAL_PCD_DataInStageCallback
                0x08005bcc                HAL_PCD_SOFCallback
                0x08005bd4                HAL_PCD_ResetCallback
                0x08005bf4                HAL_PCD_SuspendCallback
                0x08005bfc                HAL_PCD_ResumeCallback
                0x08005c04                HAL_PCD_ISOOUTIncompleteCallback
                0x08005c0c                HAL_PCD_ISOINIncompleteCallback
                0x08005c14                HAL_PCD_ConnectCallback
                0x08005c1c                HAL_PCD_DisconnectCallback
                0x08005c24                USBD_LL_Init
                0x08005c7c                USBD_LL_DeInit
                0x08005c8c                USBD_LL_Start
                0x08005c9c                USBD_LL_Stop
                0x08005cac                USBD_LL_OpenEP
                0x08005cc0                USBD_LL_CloseEP
                0x08005cd0                USBD_LL_FlushEP
                0x08005ce0                USBD_LL_StallEP
                0x08005cf0                USBD_LL_ClearStallEP
                0x08005d00                USBD_LL_IsStallEP
                0x08005d28                USBD_LL_SetUSBAddress
                0x08005d38                USBD_LL_Transmit
                0x08005d48                USBD_LL_PrepareReceive
                0x08005d58                USBD_LL_GetRxDataSize
                0x08005d64                USBD_LL_Delay
 .text          0x08005d68      0x1d0 build/power_ctrl.c.o
                0x08005d68                power_ctrl_init
                0x08005d7c                power_ctrl_timer_task
                0x08005f20                power_ctrl_get_power_state
                0x08005f2c                power_ctrl_change_state
 .text          0x08005f38       0xd8 build/stm32f4xx_it.c.o
                0x08005f38                NMI_Handler
                0x08005f3c                HardFault_Handler
                0x08005f40                MemManage_Handler
                0x08005f44                BusFault_Handler
                0x08005f48                UsageFault_Handler
                0x08005f4c                SVC_Handler
                0x08005f50                DebugMon_Handler
                0x08005f54                PendSV_Handler
                0x08005f58                SysTick_Handler
                0x08005f6c                DMA2_Stream0_IRQHandler
                0x08005f78                SPI1_IRQHandler
                0x08005f84                SPI2_IRQHandler
                0x08005f90                DMA1_Stream5_IRQHandler
                0x08005f9c                DMA1_Stream0_IRQHandler
                0x08005fa8                DMA1_Stream4_IRQHandler
                0x08005fb4                DMA1_Stream2_IRQHandler
                0x08005fc0                UART4_IRQHandler
                0x08005fcc                DMA1_Stream6_IRQHandler
                0x08005fd8                USART2_IRQHandler
                0x08005fe4                OTG_FS_IRQHandler
                0x08005ff0                OTG_HS_IRQHandler
                0x08005ffc                TIM3_IRQHandler
 .text          0x08006010       0x88 build/main.c.o
                0x08006010                main_timer_task
 .text          0x08006098      0x310 build/switch_filter.c.o
                0x08006098                switch_filter_init
                0x08006100                switch_filter_set_encoder
                0x08006134                switch_filter_get_event
                0x08006160                switch_filter_handle_enc
                0x0800626c                switch_filter_set_val
 .text          0x080063a8      0x618 build/panel_if.c.o
                0x080063a8                panel_if_spi_txrx_cplt_cb
                0x080063b8                panel_if_spi_init_cb
                0x080064c0                panel_if_blink_led
                0x080064ec                panel_if_decode_led
                0x080065a4                panel_if_init
                0x080066a4                panel_if_timer_task
                0x08006944                panel_if_set_led
                0x08006968                panel_if_set_rgb
                0x080069b4                panel_if_write_pwm
 .text          0x080069c0      0x374 build/analog_out.c.o
                0x080069c0                aout_spi_tx_cplt_cb
                0x080069f0                aout_spi_init_cb
                0x08006ab8                analog_out_init
                0x08006b44                analog_out_set_cv
                0x08006b58                analog_out_set_gate
                0x08006b90                analog_out_set_clock
                0x08006bac                analog_out_set_reset
                0x08006bc8                analog_out_beep_metronome
                0x08006bdc                aout_update_dac
                0x08006c70                aout_update_gate
                0x08006cb0                analog_out_timer_task
 .text          0x08006d34      0x170 build/debug.c.o
                0x08006d34                debug_send_active_sensing
                0x08006d4c                _write
                0x08006de0                debug_set_pin
                0x08006e20                debug_init
 .text          0x08006ea4      0xa28 build/cvproc.c.o
                0x08006ea4                cvproc_set_bend_range
                0x08006ec0                cvproc_cc_handler
                0x08006f44                cvproc_set_note
                0x08006fa4                cvproc_set_velo
                0x08006fe4                cvproc_set_bend
                0x0800708c                cvproc_mono_handler
                0x08007280                cvproc_poly_handler
                0x08007430                cvproc_timer_task
                0x080074c4                cvproc_reset_state
                0x08007540                cvproc_set_pairs
                0x080075cc                cvproc_reset_pair
                0x08007750                cvproc_set_pair_mode
                0x0800778c                cvproc_build_scale
                0x08007800                cvproc_init
                0x0800785c                cvproc_set_output_scaling
                0x0800788c                cvproc_set_cvcal
 .text          0x080078cc       0x4c build/stm32f4xx_hal_msp.c.o
                0x080078cc                HAL_MspInit
                0x08007914                HAL_MspDeInit
 .text          0x08007918      0x204 build/gfx.c.o
                0x08007918                gfx_init
                0x08007924                gfx_close
                0x08007928                gfx_commit
                0x0800792c                gfx_init_lcd
                0x08007930                gfx_deinit_lcd
                0x08007934                gfx_clear_screen
                0x0800794c                gfx_get_screen_w
                0x08007954                gfx_get_screen_h
                0x0800795c                gfx_fill_rect
                0x080079b8                gfx_load_font
                0x080079bc                gfx_draw_string
                0x08007ad4                gfx_color_32to16
                0x08007aec                gfx_get_font_row
 .text          0x08007b1c      0x210 build/ioctl.c.o
                0x08007b1c                ioctl_init
                0x08007bdc                ioctl_timer_task
                0x08007c24                ioctl_set_analog_pwr_ctrl
                0x08007c34                ioctl_get_power_sw
                0x08007c4c                ioctl_get_dc_vsense
                0x08007c6c                HAL_ADC_MspInit
 .text          0x08007d2c      0x2cc build/lcd_fsmc_if.c.o
                0x08007d2c                lcd_fsmc_if_init
                0x08007d38                lcd_fsmc_if_init_if
                0x08007d9c                lcd_fsmc_if_deinit_if
                0x08007dc0                lcd_fsmc_if_write8
                0x08007e00                lcd_fsmc_if_read8
                0x08007e40                lcd_fsmc_if_write16
                0x08007ec0                HAL_SRAM_MspInit
                0x08007f5c                HAL_SRAM_MspDeInit
 .text          0x08007ff8      0x50c build/ILI948x_drv.c.o
                0x08007ff8                ILI948x_drv_init
                0x08008074                ILI948x_drv_deinit_LCD
                0x08008094                ILI948x_drv_send_pixels
                0x080080a0                ILI948x_drv_start_cmd
                0x080080b4                ILI948x_drv_add_cmd_data
                0x080080d4                ILI948x_drv_send_cmd
                0x080080fc                ILI948x_drv_set_xy
                0x0800819c                ILI948x_drv_clear
                0x08008228                ILI948x_drv_read_cmd
                0x0800824c                ILI948x_drv_get_id
                0x08008284                ILI948x_drv_init_LCD
 .text          0x08008504        0x0 build/font_sinclair_8x8.c.o
 .text          0x08008504        0x0 build/font_system_8x12.c.o
 .text          0x08008504     0x1940 build/gui.c.o
                0x08008504                gui_close
                0x08008508                gui_force_refresh
                0x08008518                gui_clear_screen
                0x08008520                gui_set_enable
                0x08008530                gui_set_lcd_power
                0x08008548                gui_grid_set_overlay_enable
                0x08008560                gui_grid_clear_overlay
                0x08008578                gui_grid_set_overlay_color
                0x080085c8                gui_draw_grid_bg
                0x080085e4                gui_draw_main_grid
                0x08008650                gui_draw_preview_grids
                0x080087dc                gui_draw_labels
                0x08008834                gui_refresh_task
                0x08008918                gui_set_label
                0x080089ec                gui_set_status_text
                0x080089f4                gui_set_menu_subtitle
                0x080089fc                gui_set_status_text_part
                0x08008aac                gui_set_menu_title
                0x08008ab8                gui_set_menu_prev_next
                0x08008afc                gui_set_menu_param
                0x08008b08                gui_set_menu_value
                0x08008b14                gui_set_label_highlight
                0x08008be0                gui_clear_status_text
                0x08008be8                gui_clear_status_text_all
                0x08008c04                gui_clear_menu
                0x08008c20                gui_set_status_highlight_part
                0x08008c5c                gui_set_menu_edit
                0x08008c74                gui_set_label_prefs
                0x08008ccc                gui_set_label_color
                0x08008d00                gui_calculate_motion_steps
                0x08008d40                gui_update_song
                0x08008d64                gui_update_tempo
                0x08008db8                gui_update_run_enable
                0x08008df4                gui_update_rec_mode
                0x08008e3c                gui_update_clock_source
                0x08008e9c                gui_update_live_mode
                0x08008f30                gui_update_keyboard_transpose
                0x08008f60                gui_update_track_mute
                0x08008fe8                gui_update_bias_track
                0x08009068                gui_update_track_transpose
                0x080090d8                gui_update_arp_enable
                0x08009124                gui_update_tonality
                0x0800919c                gui_update_motion_start
                0x08009224                gui_update_motion_length
                0x080092ac                gui_update_motion_dir
                0x08009318                gui_update_step_length
                0x08009388                gui_update_gate_time_override
                0x080093f8                gui_update_pattern_type
                0x08009434                gui_update_track_type
                0x080094a8                gui_update_first_track
                0x080095d4                gui_init
                0x08009a28                gui_update_track_select
                0x08009a74                gui_update_scene
                0x08009b24                gui_set_status_override
                0x08009b4c                gui_update_active_step
                0x08009b6c                gui_update_song_mode
                0x08009c10                gui_handle_state_change
 .text          0x08009e44     0x1068 build/panel_menu.c.o
                0x08009e44                panel_menu_init
                0x08009e80                panel_menu_get_mode
                0x08009e8c                panel_menu_update_prev_next
                0x08009eac                panel_menu_display_swing
                0x08009eec                panel_menu_display_tonality
                0x0800a060                panel_menu_display_arp
                0x0800a16c                panel_menu_display_load
                0x0800a224                panel_menu_display_save
                0x0800a2a4                panel_menu_display_midi
                0x0800a49c                panel_menu_display_sys
                0x0800a614                panel_menu_display_clock
                0x0800a754                panel_menu_update_display
                0x0800a7e0                panel_menu_set_mode
                0x0800a8d8                panel_menu_timer_task
                0x0800a8f0                panel_menu_adjust_cursor
                0x0800a920                panel_menu_track_select_changed
                0x0800a94c                panel_menu_handle_state_change
                0x0800abe4                panel_menu_edit_song
                0x0800abe8                panel_menu_edit_swing
                0x0800ac00                panel_menu_edit_tonality
                0x0800ac48                panel_menu_edit_arp
                0x0800ac88                panel_menu_edit_load
                0x0800aca8                panel_menu_edit_save
                0x0800acc8                panel_menu_edit_midi
                0x0800ad68                panel_menu_edit_sys
                0x0800add4                panel_menu_edit_clock
                0x0800ae58                panel_menu_adjust_value
 .text          0x0800aeac      0xd44 build/panel.c.o
                0x0800aeac                panel_handle_input
                0x0800aed0                panel_set_led
                0x0800af14                panel_blink_beat_led
                0x0800af2c                panel_set_bl_led
                0x0800af5c                panel_clear_leds
                0x0800af7c                panel_restore_leds
                0x0800af98                panel_handle_track_select
                0x0800b0a0                panel_handle_mute_select
                0x0800b0d4                panel_handle_reset
                0x0800b10c                panel_update_bl_display
                0x0800b1a8                panel_init
                0x0800b240                panel_update_arp_led
                0x0800b278                panel_update_song_led
                0x0800b2a4                panel_update_live_led
                0x0800b2e8                panel_update_dir_led
                0x0800b320                panel_update_record_led
                0x0800b370                panel_update_run_led
                0x0800b398                panel_update_track_led
                0x0800b3d4                panel_handle_state_change
                0x0800b4d8                panel_get_edit_mode
                0x0800b4f0                panel_handle_shift_double_tap
                0x0800b534                panel_handle_seq_input
                0x0800bb74                panel_handle_key_queue
                0x0800bbb8                panel_timer_task
 .text          0x0800bbf0      0xb10 build/step_edit.c.o
                0x0800bbf0                step_edit_init
                0x0800bc2c                step_edit_get_enable
                0x0800bc38                step_edit_update_display
                0x0800be84                step_edit_handle_input
                0x0800bfb0                step_edit_send_note_on
                0x0800bfe0                step_edit_send_note_off
                0x0800c010                step_edit_run
                0x0800c048                step_edit_stop_notes
                0x0800c07c                step_edit_clear_step
                0x0800c0b0                step_edit_send_cc
                0x0800c0e0                step_edit_play_step
                0x0800c170                step_edit_adjust_cursor
                0x0800c1cc                step_edit_set_enable
                0x0800c260                step_edit_timer_task
                0x0800c278                step_edit_handle_state_change
                0x0800c2a4                step_edit_adjust_ratchet_mode
                0x0800c2e8                step_edit_clear_recording_notes
                0x0800c30c                step_edit_add_recording_note
                0x0800c334                step_edit_remove_recording_note
                0x0800c354                step_edit_get_num_recording_notes
                0x0800c370                step_edit_does_step_contain_event
                0x0800c3bc                step_edit_adjust_step
                0x0800c65c                step_edit_adjust_note
                0x0800c688                step_edit_adjust_velocity
                0x0800c6b8                step_edit_adjust_gate_time
                0x0800c6e4                step_edit_adjust_start_delay
 .text          0x0800c700      0x288 build/song_edit.c.o
                0x0800c700                song_edit_init
                0x0800c714                song_edit_get_enable
                0x0800c720                song_edit_update_display
                0x0800c81c                song_edit_adjust_cursor
                0x0800c84c                song_edit_set_enable
                0x0800c8a0                song_edit_timer_task
                0x0800c8b8                song_edit_adjust_scene
                0x0800c8f8                song_edit_adjust_length
                0x0800c934                song_edit_adjust_kbtrans
                0x0800c970                song_edit_remove_step
 .text          0x0800c988      0x37c build/config_store.c.o
                0x0800c988                config_store_init
                0x0800c9b0                config_store_get_val
                0x0800c9c4                config_store_set_val
                0x0800c9e4                config_store_wipe_flash
                0x0800ca3c                config_store_load_start
                0x0800ca78                config_store_load_done
                0x0800cb0c                config_store_writeback_start
                0x0800cbb0                config_store_timer_task
                0x0800ccec                config_store_clear
 .text          0x0800cd04      0x4a8 build/midi_stream.c.o
                0x0800cd04                midi_stream_init
                0x0800cd34                midi_stream_send_msg
                0x0800cd80                midi_stream_send_sysex_msg
                0x0800cdfc                midi_stream_send_byte
                0x0800d11c                midi_stream_data_available
                0x0800d150                midi_stream_receive_msg
 .text          0x0800d1ac      0x37c build/midi_utils.c.o
                0x0800d1ac                midi_utils_rewrite_dest
                0x0800d1ec                midi_utils_rewrite_note_off
                0x0800d210                midi_utils_note_on_to_off
                0x0800d22c                midi_utils_copy_msg
                0x0800d248                midi_utils_compare_msg
                0x0800d27c                midi_utils_compare_note_msg
                0x0800d2c4                midi_utils_print_msg
                0x0800d2ec                midi_utils_is_sysex_msg
                0x0800d320                midi_utils_is_clock_msg
                0x0800d344                midi_utils_copy_event
                0x0800d368                midi_utils_enc_note_on
                0x0800d38c                midi_utils_enc_note_off
                0x0800d3b0                midi_utils_enc_key_pressure
                0x0800d3d4                midi_utils_enc_control_change
                0x0800d3f8                midi_utils_enc_program_change
                0x0800d418                midi_utils_enc_channel_pressure
                0x0800d438                midi_utils_enc_pitch_bend
                0x0800d460                midi_utils_enc_mtc_qframe
                0x0800d46c                midi_utils_enc_song_position
                0x0800d488                midi_utils_enc_song_select
                0x0800d4a0                midi_utils_enc_tune_request
                0x0800d4ac                midi_utils_enc_timing_tick
                0x0800d4b8                midi_utils_enc_clock_start
                0x0800d4c4                midi_utils_enc_clock_continue
                0x0800d4d0                midi_utils_enc_clock_stop
                0x0800d4dc                midi_utils_enc_active_sensing
                0x0800d4e8                midi_utils_enc_system_reset
                0x0800d4f4                midi_utils_enc_1byte
                0x0800d500                midi_utils_enc_2byte
                0x0800d514                midi_utils_enc_3byte
 .text          0x0800d528       0xdc build/log.c.o
                0x0800d528                log_init
                0x0800d52c                log_vstdout
                0x0800d550                log_debug
                0x0800d574                log_info
                0x0800d598                log_warn
                0x0800d5bc                log_vstderr
                0x0800d5e0                log_error
 .text          0x0800d604       0x18 build/time_utils.c.o
                0x0800d604                time_utils_get_btime
                0x0800d610                time_utils_set_btime
 .text          0x0800d61c      0x6ec build/panel_utils.c.o
                0x0800d61c                panel_utils_yesno_str
                0x0800d63c                panel_utils_onoff_str
                0x0800d65c                panel_utils_port_str
                0x0800d6e8                panel_utils_channel_str
                0x0800d780                panel_utils_note_to_name
                0x0800d974                panel_utils_key_split_str
                0x0800d9b8                panel_utils_step_len_to_str
                0x0800da70                panel_utils_clock_ppq_to_str
                0x0800db0c                panel_utils_gate_time_to_str
                0x0800dc0c                panel_utils_transpose_to_str
                0x0800dc24                panel_utils_scroll_list
                0x0800dc48                panel_utils_cvgate_pair_to_str
                0x0800dc68                panel_utils_cvgate_pair_mode_to_str
                0x0800dcb4                panel_utills_cv_output_scaling_to_str
                0x0800dcf4                panel_utils_get_blank_str
 .text          0x0800dd08       0xf8 build/state_change.c.o
                0x0800dd08                state_change_init
                0x0800dd30                state_change_register
                0x0800dd74                state_change_fire
                0x0800ddb0                state_change_fire0
                0x0800ddb8                state_change_fire1
                0x0800ddd0                state_change_fire2
                0x0800dde8                state_change_fire3
 .text          0x0800de00       0xc8 build/seq_utils.c.o
                0x0800de00                seq_utils_enc_val_to_change
                0x0800de18                seq_utils_clamp
                0x0800de28                seq_utils_wrap
                0x0800de38                seq_utils_bits_to_count
                0x0800de58                seq_utils_is_step_active
                0x0800de68                seq_utils_step_len_to_ticks
                0x0800de7c                seq_utils_warp_change
                0x0800de88                seq_utils_clock_pqq_to_divisor
                0x0800dea0                seq_utils_get_wrapped_range
 .text          0x0800dec8       0xb8 build/system_stm32f4xx.c.o
                0x0800dec8                SystemInit
                0x0800df0c                SystemCoreClockUpdate
 .text          0x0800df80       0x14 build/startup_stm32f407xx.s.o
 .text          0x0800df94        0x0 build/lcd_drv.c.o
 .text          0x0800df94      0x554 build/spi_flash.c.o
                0x0800df94                spi_flash_spi_txrx_cplt_cb
                0x0800e008                spi_flash_spi_init_cb
                0x0800e180                spi_flash_init
                0x0800e1e0                spi_flash_get_state
                0x0800e1ec                spi_flash_get_result
                0x0800e2b4                spi_flash_start_xfer
                0x0800e2e8                spi_flash_start_cmd
 .text          0x0800e4e8      0x5f8 build/iface_midi_router.c.o
                0x0800e4e8                iface_midi_router_init
                0x0800e510                iface_midi_router_set_program
                0x0800e7d8                iface_midi_router_set_bend_range
                0x0800e800                iface_midi_router_set_clock_div
                0x0800e834                iface_midi_router_clear_config
                0x0800e84c                iface_midi_router_handle_state_change
                0x0800e87c                iface_midi_router_load_config
                0x0800e8a0                iface_midi_router_handle_cv_setting
                0x0800e8e0                iface_midi_router_clock_task
                0x0800e938                iface_midi_router_handle_clock_msg
                0x0800e9a8                iface_midi_router_timer_task
 .text          0x0800eae0      0x420 build/iface_panel.c.o
                0x0800eae0                iface_panel_init
                0x0800eae4                iface_panel_handle_input
                0x0800ee14                iface_panel_handle_led
 .text          0x0800ef00      0x410 build/usbh_midi.c.o
                0x0800f26c                usbh_midi_init
                0x0800f300                usbh_midi_task
                0x0800f30c                usbh_midi_set_vbus
 .text          0x0800f310      0x304 build/usbh_conf.c.o
                0x0800f310                usbh_conf_set_vbus
                0x0800f334                HAL_HCD_MspInit
                0x0800f454                HAL_HCD_MspDeInit
                0x0800f48c                HAL_HCD_SOF_Callback
                0x0800f494                HAL_HCD_Connect_Callback
                0x0800f49c                HAL_HCD_Disconnect_Callback
                0x0800f4a4                HAL_HCD_HC_NotifyURBChange_Callback
                0x0800f4a8                USBH_LL_Init
                0x0800f4f0                USBH_LL_DeInit
                0x0800f500                USBH_LL_Start
                0x0800f510                USBH_LL_Stop
                0x0800f520                USBH_LL_GetSpeed
                0x0800f53c                USBH_LL_ResetPort
                0x0800f54c                USBH_LL_GetLastXferSize
                0x0800f554                USBH_LL_OpenPipe
                0x0800f578                USBH_LL_ClosePipe
                0x0800f588                USBH_LL_SubmitURB
                0x0800f5b0                USBH_LL_GetURBState
                0x0800f5b8                USBH_LL_DriverVBUS
                0x0800f5cc                USBH_LL_SetToggle
                0x0800f5f0                USBH_LL_GetToggle
                0x0800f610                USBH_Delay
 .text          0x0800f614       0x30 build/delay.c.o
                0x0800f614                delay_init
                0x0800f620                delay_timer_task
                0x0800f630                delay_ms
 .text          0x0800f644      0x124 build/metronome.c.o
                0x0800f644                metronome_init
                0x0800f65c                metronome_run
                0x0800f6e0                metronome_beat_cross
                0x0800f6ec                metronome_stop_sound
                0x0800f744                metronome_timer_task
                0x0800f75c                metronome_mode_changed
 .text          0x0800f768      0x4dc build/sysex.c.o
                0x0800f768                sysex_init
                0x0800f778                sysex_send_read_ext_mem_result
                0x0800f840                sysex_send_devtype_response
                0x0800f884                sysex_send_error_response
                0x0800f8d4                sysex_timer_task
                0x0800f910                sysex_nibbles_to_bytes
                0x0800f940                sysex_process
                0x0800fbdc                sysex_handle_msg
 .text          0x0800fc44      0x224 build/midi_ctrl.c.o
                0x0800fc44                midi_ctrl_init
                0x0800fc48                midi_ctrl_handle_midi_msg
 .text          0x0800fe68      0x1a0 build/pattern.c.o
                0x0800fe68                pattern_init
                0x0800fe94                pattern_get_step_enable
                0x0800fedc                pattern_load_rom_defaults
                0x0800ff60                pattern_handle_state_change
                0x0800ff90                pattern_load_patterns
 .text          0x08010008      0xd58 build/arp.c.o
                0x08010008                arp_set_seq_enable
                0x0801002c                arp_handle_input
                0x080100e4                arp_set_type
                0x08010158                arp_set_speed
                0x08010194                arp_set_gate_time
                0x080101c8                arp_type_to_name
                0x080102b0                arp_reset_program
                0x080102f8                arp_find_lowest_note
                0x0801033c                arp_find_highest_note
                0x08010378                arp_find_lower_note
                0x080103c0                arp_find_higher_note
                0x0801040c                arp_find_random_note
                0x08010464                arp_start_note
                0x080104c8                arp_stop_all_notes
                0x08010538                arp_clear_input
                0x0801057c                arp_set_arp_enable
                0x08010608                arp_init
                0x08010688                arp_execute_step
                0x08010c14                arp_timeout_notes
                0x08010c34                arp_run
                0x08010cfc                arp_find_label
                0x08010d3c                arp_take_snapshot
 .text          0x08010d60     0x14c8 build/seq_ctrl.c.o
                0x08010d60                seq_ctrl_init
                0x08010dd0                seq_ctrl_rt_task
                0x08010e08                seq_ctrl_ui_task
                0x08010e18                seq_ctrl_clock_tick
                0x08010e1c                seq_ctrl_panel_input
                0x08010e2c                seq_ctrl_is_run_lockout
                0x08010e3c                seq_ctrl_get_current_song
                0x08010e48                seq_ctrl_get_scene
                0x08010e4c                seq_ctrl_get_run_state
                0x08010e50                seq_ctrl_get_num_tracks_selected
                0x08010e6c                seq_ctrl_get_track_select
                0x08010e94                seq_ctrl_get_song_mode
                0x08010ea0                seq_ctrl_set_song_mode
                0x08010ec0                seq_ctrl_toggle_song_mode
                0x08010ed8                seq_ctrl_get_live_mode
                0x08010ee4                seq_ctrl_set_live_mode
                0x08010f0c                seq_ctrl_get_first_track
                0x08010f18                seq_ctrl_get_record_mode
                0x08010f24                seq_ctrl_set_record_mode
                0x08010f78                seq_ctrl_set_run_state
                0x08010fbc                seq_ctrl_record_pressed
                0x08010fd4                seq_ctrl_set_scene
                0x0801100c                seq_ctrl_copy_scene
                0x08011050                seq_ctrl_reset_pos
                0x08011074                seq_ctrl_reset_track
                0x08011094                seq_ctrl_set_track_select
                0x08011114                seq_ctrl_save_song
                0x08011154                seq_ctrl_clear_song
                0x08011178                seq_ctrl_load_song
                0x080111cc                seq_ctrl_set_kbtrans
                0x080111d0                seq_ctrl_adjust_cvcal
                0x08011208                seq_ctrl_set_tempo
                0x08011218                seq_ctrl_adjust_tempo
                0x08011278                seq_ctrl_tap_tempo
                0x0801127c                seq_ctrl_adjust_swing
                0x080112a0                seq_ctrl_adjust_metronome_mode
                0x080112cc                seq_ctrl_adjust_key_velocity_scale
                0x080112e8                seq_ctrl_adjust_cv_bend_range
                0x08011304                seq_ctrl_adjust_cvgate_pairs
                0x08011320                seq_ctrl_adjust_cvgate_pair_mode
                0x08011358                seq_ctrl_adjust_cv_output_scaling
                0x0801138c                seq_ctrl_adjust_clock_rate
                0x080113c0                seq_ctrl_adjust_midi_remote_ctrl
                0x080113dc                seq_ctrl_set_midi_program
                0x08011428                seq_ctrl_adjust_midi_program
                0x08011484                seq_ctrl_adjust_midi_port
                0x080114f0                seq_ctrl_adjust_midi_channel
                0x08011588                seq_ctrl_adjust_key_split
                0x080115c8                seq_ctrl_adjust_track_type
                0x08011608                seq_ctrl_set_step_length
                0x08011658                seq_ctrl_adjust_step_length
                0x080116a0                seq_ctrl_adjust_tonality
                0x080116e8                seq_ctrl_set_transpose
                0x08011738                seq_ctrl_adjust_transpose
                0x08011784                seq_ctrl_adjust_bias_track
                0x080117d0                seq_ctrl_set_motion_start
                0x08011820                seq_ctrl_adjust_motion_start
                0x08011878                seq_ctrl_set_motion_length
                0x080118c8                seq_ctrl_adjust_motion_length
                0x08011920                seq_ctrl_set_gate_time
                0x08011970                seq_ctrl_adjust_gate_time
                0x080119bc                seq_ctrl_set_pattern_type
                0x08011a08                seq_ctrl_adjust_pattern_type
                0x08011a4c                seq_ctrl_set_motion_dir
                0x08011ab0                seq_ctrl_flip_motion_dir
                0x08011b00                seq_ctrl_get_mute_select
                0x08011b14                seq_ctrl_set_mute_select
                0x08011b78                seq_ctrl_set_arp_type
                0x08011bc8                seq_ctrl_adjust_arp_type
                0x08011c10                seq_ctrl_set_arp_speed
                0x08011c60                seq_ctrl_adjust_arp_speed
                0x08011ca8                seq_ctrl_set_arp_gate_time
                0x08011cf8                seq_ctrl_adjust_arp_gate_time
                0x08011d44                seq_ctrl_get_arp_enable
                0x08011d58                seq_ctrl_set_arp_enable
                0x08011da0                seq_ctrl_flip_arp_enable
                0x08011df0                seq_ctrl_make_magic
                0x08011eb0                seq_ctrl_make_clear
                0x08011f14                seq_ctrl_cancel_record
                0x08011f28                seq_ctrl_refresh_modules
                0x08011f90                seq_ctrl_set_current_song
                0x08011fb4                seq_ctrl_handle_state_change
                0x0801220c                seq_ctrl_set_run_lockout
 .text          0x08012228      0xe5c build/arp_progs.c.o
                0x08012228                arp_progs_init
                0x08012260                arp_progs_clear
                0x0801229c                arp_progs_addin
                0x080122d4                arp_progs_generate_up
                0x080125ac                arp_progs_generate_down
                0x080128a8                arp_progs_generate_updown
                0x08012e44                arp_progs_generate_random
                0x08012fac                arp_progs_load
 *fill*         0x08013084        0x4 
 .text          0x08013088      0x428 build/clock.c.o
                0x08013088                clock_get_source
                0x08013094                clock_get_tempo
                0x080130b4                clock_set_tempo
                0x080130f0                clock_set_swing
                0x08013108                clock_tap_tempo
                0x08013118                clock_reset_pos
                0x08013128                clock_get_tick_pos
                0x08013140                clock_get_running
                0x0801314c                clock_set_running
                0x08013160                clock_midi_rx_tick
                0x0801316c                clock_set_source
                0x0801318c                clock_init
                0x080131dc                clock_timer_task
 .text          0x080134b0      0x300 build/clock_out.c.o
                0x080134b0                clock_out_init
                0x080134fc                clock_out_timer_task
                0x08013554                clock_out_set_output
                0x08013588                clock_out_handle_state_change
                0x0801360c                clock_out_set_run_state
                0x08013620                clock_out_generate_start
                0x08013688                clock_out_generate_stop
                0x080136c0                clock_out_run
 .text          0x080137b0      0x180 build/scale.c.o
                0x080137b0                scale_type_to_name
                0x08013854                scale_quantize
 .text          0x08013930     0x1ebc build/seq_engine.c.o
                0x08013c54                seq_engine_reset_track
                0x08013c98                seq_engine_get_current_scene
                0x08013ca4                seq_engine_get_song_mode_state
                0x08013cac                seq_engine_set_kbtrans
                0x08013cd8                seq_engine_arp_start_note
                0x08013cf8                seq_engine_arp_stop_note
                0x08013d18                seq_engine_song_mode_find_next_scene
                0x08013d3c                seq_engine_track_start_note
                0x08013f50                seq_engine_track_play_step
                0x0801404c                seq_engine_track_manage_notes
                0x08014168                seq_engine_track_stop_all_notes
                0x080141e8                seq_engine_track_set_bias_output
                0x0801420c                seq_engine_live_enqueue_note
                0x08014244                seq_engine_live_dequeue_note
                0x08014294                seq_engine_live_send_msg
                0x080143a4                seq_engine_live_get_num_notes
                0x080143c8                seq_engine_live_stop_all_notes
                0x08014478                seq_engine_stop_notes
                0x080144a4                seq_engine_stop_live_notes
                0x080144b8                seq_engine_live_passthrough
                0x08014514                seq_engine_record_write_tracks
                0x08014528                seq_engine_live_mode_changed
                0x08014598                seq_engine_track_select_changed
                0x080145dc                seq_engine_mute_select_changed
                0x08014620                seq_engine_metronome_mode_changed
                0x08014624                seq_engine_key_split_changed
                0x08014638                seq_engine_arp_type_changed
                0x08014668                seq_engine_arp_speed_changed
                0x08014698                seq_engine_arp_gate_time_changed
                0x080146c8                seq_engine_arp_enable_changed
                0x08014754                seq_engine_recalc_params
                0x08014850                seq_engine_init
                0x08014940                seq_engine_is_first_step
                0x0801498c                seq_engine_move_to_next_step
                0x080149b4                seq_engine_compute_next_pos
                0x080149c0                seq_engine_cancel_pending_scene_change
                0x080149cc                seq_engine_reset_all_tracks_pos
                0x08014a10                seq_engine_change_scene_synced
                0x08014a90                seq_engine_change_scene
                0x08014abc                seq_engine_song_mode_load_entry
                0x08014b04                seq_engine_song_mode_reset
                0x08014b30                seq_engine_song_mode_process
                0x08014b94                seq_engine_song_mode_enable_changed
                0x08014bfc                seq_engine_run
                0x08014e64                seq_engine_send_program
                0x08014e9c                seq_engine_song_loaded
                0x08014ed0                seq_engine_handle_state_change
                0x08015050                seq_engine_send_all_notes_off
                0x08015080                seq_engine_set_run_state
                0x080150e8                seq_engine_highlight_step_record_pos
                0x0801510c                seq_engine_record_mode_changed
                0x080151d0                seq_engine_step_sequence_advance
                0x08015218                seq_engine_record_event
                0x08015528                seq_engine_handle_midi_msg
                0x08015658                seq_engine_timer_task
                0x08015750                seq_engine_step_sequence_shuttle
                0x08015774                seq_engine_step_rec_pos_changed
                0x080157cc                seq_engine_check_key_split_range
 *fill*         0x080157ec        0x4 
 .text          0x080157f0     0x1d60 build/song.c.o
                0x080157f0                song_load
                0x08015844                song_save
                0x08015898                song_get_song_version
                0x080158a4                song_get_tempo
                0x080158b0                song_set_tempo
                0x08015920                song_get_swing
                0x0801592c                song_set_swing
                0x08015954                song_get_metronome_mode
                0x08015960                song_set_metronome_mode
                0x08015988                song_get_key_velocity_scale
                0x08015994                song_set_key_velocity_scale
                0x080159bc                song_get_cv_bend_range
                0x080159c8                song_set_cv_bend_range
                0x080159ec                song_get_cvgate_pairs
                0x080159f8                song_set_cvgate_pairs
                0x08015a1c                song_get_cvgate_pair_mode
                0x08015a44                song_set_cvgate_pair_mode
                0x08015a88                song_get_cv_output_scaling
                0x08015ab0                song_set_cv_output_scaling
                0x08015af0                song_get_cvcal
                0x08015b18                song_set_cvcal
                0x08015b5c                song_get_midi_port_clock
                0x08015b84                song_set_midi_port_clock
                0x08015bc8                song_get_midi_remote_ctrl
                0x08015bd8                song_set_midi_remote_ctrl
                0x08015bfc                song_add_song_list_entry
                0x08015cdc                song_remove_song_list_entry
                0x08015d80                song_get_song_list_scene
                0x08015dac                song_get_song_list_length
                0x08015dd8                song_get_song_list_kbtrans
                0x08015e04                song_set_song_list_kbtrans
                0x08015e80                song_set_song_list_scene
                0x08015efc                song_set_song_list_length
                0x08015f78                song_get_midi_program
                0x08015fb8                song_set_midi_program
                0x0801600c                song_get_midi_port_map
                0x0801604c                song_set_midi_port_map
                0x080160a8                song_get_midi_channel_map
                0x080160e8                song_set_midi_channel_map
                0x08016144                song_get_key_split
                0x0801616c                song_set_key_split
                0x080161b0                song_get_track_type
                0x080161d8                song_set_track_type
                0x0801621c                song_get_step_length
                0x08016260                song_set_step_length
                0x080162c0                song_get_tonality
                0x08016304                song_set_tonality
                0x08016364                song_get_transpose
                0x080163a8                song_set_transpose
                0x0801640c                song_get_bias_track
                0x08016450                song_set_bias_track
                0x080164b4                song_get_motion_start
                0x080164f8                song_set_motion_start
                0x08016558                song_get_motion_length
                0x0801659c                song_set_motion_length
                0x08016600                song_get_gate_time
                0x08016644                song_set_gate_time
                0x080166a8                song_get_pattern_type
                0x080166ec                song_set_pattern_type
                0x0801674c                song_get_motion_dir
                0x08016790                song_set_motion_dir
                0x08016800                song_get_mute
                0x08016844                song_set_mute
                0x080168b4                song_get_arp_type
                0x080168f8                song_set_arp_type
                0x08016958                song_get_arp_speed
                0x0801699c                song_set_arp_speed
                0x080169fc                song_get_arp_gate_time
                0x08016a3c                song_set_arp_gate_time
                0x08016aa0                song_get_arp_enable
                0x08016ae0                song_set_arp_enable
                0x08016b50                song_copy_scene
                0x08016c94                song_clear_step_event
                0x08016d18                song_get_num_step_events
                0x08016d8c                song_add_step_event
                0x08016e8c                song_set_step_event
                0x08016f48                song_get_step_event
                0x08016fe4                song_get_start_delay
                0x0801703c                song_set_start_delay
                0x080170ac                song_get_ratchet_mode
                0x08017104                song_set_ratchet_mode
                0x08017178                song_clear_step
                0x08017210                song_clear
                0x08017468                song_init
                0x0801748c                song_timer_task
 .text          0x08017550      0x45c build/outproc.c.o
                0x08017550                outproc_init
                0x08017580                outproc_enqueue_note
                0x080175b0                outproc_dequeue_note
                0x080175f8                outproc_deliver_msg
                0x08017760                outproc_stop_all_notes
                0x080177b4                outproc_transpose_changed
                0x080178c0                outproc_tonality_changed
                0x0801798c                outproc_get_num_notes
 .text          0x080179ac      0x2a4 build/spi_callbacks.c.o
                0x080179ac                spi_callbacks_init
                0x08017a20                spi_callbacks_register_handle
                0x08017a40                spi_callbacks_register_tx_cb
                0x08017a50                spi_callbacks_register_rx_cb
                0x08017a60                spi_callbacks_register_txrx_cb
                0x08017a70                spi_callbacks_register_tx_half_cb
                0x08017a80                spi_callbacks_register_rx_half_cb
                0x08017a90                spi_callbacks_register_txrx_half_cb
                0x08017aa0                spi_callbacks_register_error_cb
                0x08017ab0                HAL_SPI_MspInit
                0x08017ae4                HAL_SPI_TxCpltCallback
                0x08017b18                HAL_SPI_RxCpltCallback
                0x08017b4c                HAL_SPI_TxRxCpltCallback
                0x08017b80                HAL_SPI_TxHalfCpltCallback
                0x08017bb4                HAL_SPI_RxHalfCpltCallback
                0x08017be8                HAL_SPI_TxRxHalfCpltCallback
                0x08017c1c                HAL_SPI_ErrorCallback
 .text          0x08017c50      0x450 build/ext_flash.c.o
                0x08017c50                ext_flash_init
                0x08017c64                ext_flash_timer_task
                0x08017fec                ext_flash_get_state
                0x0801800c                ext_flash_load
                0x08018034                ext_flash_save
                0x0801805c                ext_flash_save_noerase
                0x08018084                ext_flash_get_mem_size
                0x0801808c                ext_flash_get_remain_io_bytes
 .text          0x080180a0      0x438 build/din_midi.c.o
                0x080180a0                din_midi_init
                0x08018120                din_midi_timer_task
                0x0801829c                HAL_UART_TxCpltCallback
                0x080182cc                HAL_UART_MspInit
 .text          0x080184d8      0x100 build/stm32f4xx_hal_dma_ex.c.o
                0x080184d8                HAL_DMAEx_MultiBufferStart
                0x0801853c                HAL_DMAEx_MultiBufferStart_IT
                0x080185c8                HAL_DMAEx_ChangeMemory
 .text          0x080185d8        0x0 build/stm32f4xx_hal_sai.c.o
 .text          0x080185d8       0xc4 build/stm32f4xx_hal_timebase_tim_template.c.o
                0x080185d8                HAL_InitTick
                0x08018664                HAL_SuspendTick
                0x08018678                HAL_ResumeTick
                0x0801868c                HAL_TIM_PeriodElapsedCallback
                0x08018690                TIM6_DAC_IRQHandler
 .text          0x0801869c        0x0 build/stm32f4xx_hal_fmpi2c.c.o
 .text          0x0801869c      0xaf0 build/stm32f4xx_hal_hcd.c.o
                0x0801869c                HAL_HCD_HC_Init
                0x08018708                HAL_HCD_HC_Halt
                0x08018730                HAL_HCD_Init
                0x080187b4                HAL_HCD_DeInit
                0x080187d8                HAL_HCD_HC_SubmitRequest
                0x080188e4                HAL_HCD_IRQHandler
                0x080190f0                HAL_HCD_Start
                0x0801911c                HAL_HCD_Stop
                0x08019140                HAL_HCD_ResetPort
                0x08019148                HAL_HCD_GetState
                0x08019150                HAL_HCD_HC_GetURBState
                0x08019160                HAL_HCD_HC_GetXferCount
                0x0801916c                HAL_HCD_HC_GetState
                0x0801917c                HAL_HCD_GetCurrentFrame
                0x08019184                HAL_HCD_GetCurrentSpeed
 .text          0x0801918c        0x0 build/stm32f4xx_hal_nor.c.o
 .text          0x0801918c        0x0 build/stm32f4xx_hal_smartcard.c.o
 .text          0x0801918c        0x0 build/stm32f4xx_hal_hash_ex.c.o
 .text          0x0801918c      0x760 build/stm32f4xx_hal_adc_ex.c.o
                0x08019204                HAL_ADCEx_InjectedStart
                0x080192d8                HAL_ADCEx_InjectedStart_IT
                0x080193b4                HAL_ADCEx_InjectedStop
                0x08019410                HAL_ADCEx_InjectedPollForConversion
                0x08019498                HAL_ADCEx_InjectedStop_IT
                0x080194fc                HAL_ADCEx_InjectedGetValue
                0x08019540                HAL_ADCEx_MultiModeStart_DMA
                0x0801965c                HAL_ADCEx_MultiModeStop_DMA
                0x080196c4                HAL_ADCEx_MultiModeGetValue
                0x080196d0                HAL_ADCEx_InjectedConvCpltCallback
                0x080196d4                HAL_ADCEx_InjectedConfigChannel
                0x08019898                HAL_ADCEx_MultiModeConfigChannel
 .text          0x080198ec      0xeb4 build/stm32f4xx_hal_spi.c.o
                0x08019c7c                HAL_SPI_Init
                0x08019d28                HAL_SPI_MspDeInit
                0x08019d2c                HAL_SPI_DeInit
                0x08019d58                HAL_SPI_Transmit
                0x08019e94                HAL_SPI_Receive
                0x08019fe8                HAL_SPI_TransmitReceive
                0x08019ffc                HAL_SPI_Transmit_IT
                0x0801a09c                HAL_SPI_Receive_IT
                0x0801a150                HAL_SPI_TransmitReceive_IT
                0x0801a16c                HAL_SPI_Transmit_DMA
                0x0801a20c                HAL_SPI_Receive_DMA
                0x0801a2d4                HAL_SPI_TransmitReceive_DMA
                0x0801a2f0                HAL_SPI_DMAPause
                0x0801a314                HAL_SPI_DMAResume
                0x0801a338                HAL_SPI_DMAStop
                0x0801a6ec                HAL_SPI_IRQHandler
                0x0801a794                HAL_SPI_GetState
                0x0801a79c                HAL_SPI_GetError
 .text          0x0801a7a0      0xb80 build/stm32f4xx_hal_tim_ex.c.o
                0x0801a7a0                HAL_TIMEx_HallSensor_MspInit
                0x0801a7a4                HAL_TIMEx_HallSensor_Init
                0x0801a848                HAL_TIMEx_HallSensor_MspDeInit
                0x0801a84c                HAL_TIMEx_HallSensor_DeInit
                0x0801a888                HAL_TIMEx_HallSensor_Start
                0x0801a8a4                HAL_TIMEx_HallSensor_Stop
                0x0801a8d4                HAL_TIMEx_HallSensor_Start_IT
                0x0801a8f8                HAL_TIMEx_HallSensor_Stop_IT
                0x0801a930                HAL_TIMEx_HallSensor_Start_DMA
                0x0801a99c                HAL_TIMEx_HallSensor_Stop_DMA
                0x0801a9d4                HAL_TIMEx_OCN_Start
                0x0801a9fc                HAL_TIMEx_OCN_Stop
                0x0801aa4c                HAL_TIMEx_OCN_Start_IT
                0x0801aac4                HAL_TIMEx_OCN_Stop_IT
                0x0801ab6c                HAL_TIMEx_OCN_Start_DMA
                0x0801ac68                HAL_TIMEx_OCN_Stop_DMA
                0x0801ad08                HAL_TIMEx_PWMN_Start
                0x0801ad30                HAL_TIMEx_PWMN_Stop
                0x0801ad80                HAL_TIMEx_PWMN_Start_IT
                0x0801adf8                HAL_TIMEx_PWMN_Stop_IT
                0x0801aea0                HAL_TIMEx_PWMN_Start_DMA
                0x0801af9c                HAL_TIMEx_PWMN_Stop_DMA
                0x0801b03c                HAL_TIMEx_OnePulseN_Start
                0x0801b05c                HAL_TIMEx_OnePulseN_Stop
                0x0801b0ac                HAL_TIMEx_OnePulseN_Start_IT
                0x0801b0dc                HAL_TIMEx_OnePulseN_Stop_IT
                0x0801b13c                HAL_TIMEx_ConfigCommutationEvent
                0x0801b18c                HAL_TIMEx_ConfigCommutationEvent_IT
                0x0801b1e4                HAL_TIMEx_ConfigCommutationEvent_DMA
                0x0801b24c                HAL_TIMEx_MasterConfigSynchronization
                0x0801b294                HAL_TIMEx_ConfigBreakDeadTime
                0x0801b2d8                HAL_TIMEx_RemapConfig
                0x0801b300                HAL_TIMEx_CommutationCallback
                0x0801b304                TIMEx_DMACommutationCplt
                0x0801b314                HAL_TIMEx_BreakCallback
                0x0801b318                HAL_TIMEx_HallSensor_GetState
 .text          0x0801b320        0x0 build/stm32f4xx_hal_ltdc.c.o
 .text          0x0801b320        0x0 build/stm32f4xx_hal_qspi.c.o
 .text          0x0801b320        0x0 build/stm32f4xx_hal_nand.c.o
 .text          0x0801b320     0x2354 build/stm32f4xx_hal_tim.c.o
                0x0801b4e8                HAL_TIM_Base_MspInit
                0x0801b4ec                HAL_TIM_Base_MspDeInit
                0x0801b4f0                HAL_TIM_Base_DeInit
                0x0801b52c                HAL_TIM_Base_Start
                0x0801b54c                HAL_TIM_Base_Stop
                0x0801b57c                HAL_TIM_Base_Start_IT
                0x0801b594                HAL_TIM_Base_Stop_IT
                0x0801b5c0                HAL_TIM_Base_Start_DMA
                0x0801b61c                HAL_TIM_Base_Stop_DMA
                0x0801b64c                HAL_TIM_OC_MspInit
                0x0801b650                HAL_TIM_OC_MspDeInit
                0x0801b654                HAL_TIM_OC_DeInit
                0x0801b690                HAL_TIM_OC_Start
                0x0801b6d4                HAL_TIM_OC_Stop
                0x0801b744                HAL_TIM_OC_Start_IT
                0x0801b7d0                HAL_TIM_OC_Stop_IT
                0x0801b884                HAL_TIM_OC_Start_DMA
                0x0801b998                HAL_TIM_OC_Stop_DMA
                0x0801ba50                HAL_TIM_PWM_MspInit
                0x0801ba54                HAL_TIM_PWM_MspDeInit
                0x0801ba58                HAL_TIM_PWM_DeInit
                0x0801ba94                HAL_TIM_PWM_Start
                0x0801bad8                HAL_TIM_PWM_Stop
                0x0801bb4c                HAL_TIM_PWM_Start_IT
                0x0801bbd8                HAL_TIM_PWM_Stop_IT
                0x0801bc8c                HAL_TIM_PWM_Start_DMA
                0x0801bda0                HAL_TIM_PWM_Stop_DMA
                0x0801be58                HAL_TIM_IC_MspInit
                0x0801be5c                HAL_TIM_IC_MspDeInit
                0x0801be60                HAL_TIM_IC_DeInit
                0x0801be9c                HAL_TIM_IC_Start
                0x0801bebc                HAL_TIM_IC_Stop
                0x0801bef0                HAL_TIM_IC_Start_IT
                0x0801bf58                HAL_TIM_IC_Stop_IT
                0x0801bfd0                HAL_TIM_IC_Start_DMA
                0x0801c0b4                HAL_TIM_IC_Stop_DMA
                0x0801c138                HAL_TIM_OnePulse_MspInit
                0x0801c13c                HAL_TIM_OnePulse_MspDeInit
                0x0801c140                HAL_TIM_OnePulse_DeInit
                0x0801c17c                HAL_TIM_OnePulse_Start
                0x0801c1c4                HAL_TIM_OnePulse_Stop
                0x0801c234                HAL_TIM_OnePulse_Start_IT
                0x0801c28c                HAL_TIM_OnePulse_Stop_IT
                0x0801c30c                HAL_TIM_Encoder_MspInit
                0x0801c310                HAL_TIM_Encoder_MspDeInit
                0x0801c314                HAL_TIM_Encoder_DeInit
                0x0801c350                HAL_TIM_Encoder_Start
                0x0801c39c                HAL_TIM_Encoder_Stop
                0x0801c3f0                HAL_TIM_Encoder_Start_IT
                0x0801c470                HAL_TIM_Encoder_Stop_IT
                0x0801c4f0                HAL_TIM_Encoder_Start_DMA
                0x0801c638                HAL_TIM_Encoder_Stop_DMA
                0x0801c6b8                HAL_TIM_DMABurst_WriteStart
                0x0801c79c                HAL_TIM_DMABurst_WriteStop
                0x0801c814                HAL_TIM_DMABurst_ReadStart
                0x0801c8f8                HAL_TIM_DMABurst_ReadStop
                0x0801c970                HAL_TIM_GenerateEvent
                0x0801c99c                HAL_TIM_ConfigOCrefClear
                0x0801ca68                HAL_TIM_ConfigClockSource
                0x0801cbe4                HAL_TIM_ConfigTI1Input
                0x0801cbf4                HAL_TIM_SlaveConfigSynchronization
                0x0801cc34                HAL_TIM_SlaveConfigSynchronization_IT
                0x0801cc74                HAL_TIM_ReadCapturedValue
                0x0801cce8                HAL_TIM_OC_DelayElapsedCallback
                0x0801ccec                HAL_TIM_IC_CaptureCallback
                0x0801ccf0                TIM_DMACaptureCplt
                0x0801cd3c                HAL_TIM_PWM_PulseFinishedCallback
                0x0801cd40                TIM_DMADelayPulseCplt
                0x0801cd8c                HAL_TIM_TriggerCallback
                0x0801cd90                HAL_TIM_IRQHandler
                0x0801cef4                HAL_TIM_ErrorCallback
                0x0801cef8                TIM_DMAError
                0x0801cf08                HAL_TIM_Base_GetState
                0x0801cf10                HAL_TIM_OC_GetState
                0x0801cf18                HAL_TIM_PWM_GetState
                0x0801cf20                HAL_TIM_IC_GetState
                0x0801cf28                HAL_TIM_OnePulse_GetState
                0x0801cf30                HAL_TIM_Encoder_GetState
                0x0801cf38                TIM_Base_SetConfig
                0x0801d01c                HAL_TIM_Base_Init
                0x0801d054                HAL_TIM_OC_Init
                0x0801d08c                HAL_TIM_PWM_Init
                0x0801d0c4                HAL_TIM_IC_Init
                0x0801d0fc                HAL_TIM_OnePulse_Init
                0x0801d148                HAL_TIM_Encoder_Init
                0x0801d1f8                TIM_TI1_SetConfig
                0x0801d274                HAL_TIM_IC_ConfigChannel
                0x0801d3ac                TIM_OC2_SetConfig
                0x0801d414                HAL_TIM_OC_ConfigChannel
                0x0801d474                HAL_TIM_PWM_ConfigChannel
                0x0801d548                HAL_TIM_OnePulse_ConfigChannel
                0x0801d658                TIM_CCxChannelCmd
 .text          0x0801d674        0x0 build/stm32f4xx_hal_dsi.c.o
 .text          0x0801d674        0x0 build/stm32f4xx_hal_cryp_ex.c.o
 .text          0x0801d674        0x0 build/stm32f4xx_ll_fmc.c.o
 .text          0x0801d674      0xa14 build/stm32f4xx_hal_pcd.c.o
                0x0801d678                HAL_PCD_Init
                0x0801d758                HAL_PCD_DeInit
                0x0801d79c                HAL_PCD_Start
                0x0801d7c8                HAL_PCD_Stop
                0x0801d824                HAL_PCD_IRQHandler
                0x0801dd40                HAL_PCD_DevConnect
                0x0801dd64                HAL_PCD_DevDisconnect
                0x0801dd88                HAL_PCD_SetAddress
                0x0801ddac                HAL_PCD_EP_Open
                0x0801de24                HAL_PCD_EP_Close
                0x0801de74                HAL_PCD_EP_Receive
                0x0801dee4                HAL_PCD_EP_GetRxCount
                0x0801def8                HAL_PCD_EP_Transmit
                0x0801df5c                HAL_PCD_EP_SetStall
                0x0801dfc0                HAL_PCD_EP_ClrStall
                0x0801e014                HAL_PCD_EP_Flush
                0x0801e050                HAL_PCD_ActivateRemoteWakeup
                0x0801e06c                HAL_PCD_DeActivateRemoteWakeup
                0x0801e080                HAL_PCD_GetState
 .text          0x0801e088      0x41c build/stm32f4xx_hal_gpio.c.o
                0x0801e088                HAL_GPIO_Init
                0x0801e2ec                HAL_GPIO_DeInit
                0x0801e440                HAL_GPIO_ReadPin
                0x0801e44c                HAL_GPIO_WritePin
                0x0801e454                HAL_GPIO_TogglePin
                0x0801e45c                HAL_GPIO_LockPin
                0x0801e488                HAL_GPIO_EXTI_Callback
                0x0801e48c                HAL_GPIO_EXTI_IRQHandler
 .text          0x0801e4a4       0x50 build/stm32f4xx_hal_pcd_ex.c.o
                0x0801e4a4                HAL_PCDEx_SetTxFiFo
                0x0801e4ec                HAL_PCDEx_SetRxFiFo
 .text          0x0801e4f4      0x200 build/stm32f4xx_hal_pwr.c.o
                0x0801e4f4                HAL_PWR_DeInit
                0x0801e50c                HAL_PWR_EnableBkUpAccess
                0x0801e528                HAL_PWR_DisableBkUpAccess
                0x0801e544                HAL_PWR_ConfigPVD
                0x0801e5bc                HAL_PWR_EnablePVD
                0x0801e5d8                HAL_PWR_DisablePVD
                0x0801e5f4                HAL_PWR_EnableWakeUpPin
                0x0801e604                HAL_PWR_DisableWakeUpPin
                0x0801e614                HAL_PWR_EnterSLEEPMode
                0x0801e634                HAL_PWR_EnterSTOPMode
                0x0801e674                HAL_PWR_EnterSTANDBYMode
                0x0801e694                HAL_PWR_PVDCallback
                0x0801e698                HAL_PWR_PVD_IRQHandler
                0x0801e6b4                HAL_PWR_EnableSleepOnExit
                0x0801e6c4                HAL_PWR_DisableSleepOnExit
                0x0801e6d4                HAL_PWR_EnableSEVOnPend
                0x0801e6e4                HAL_PWR_DisableSEVOnPend
 .text          0x0801e6f4        0x0 build/stm32f4xx_hal_dac.c.o
 .text          0x0801e6f4        0x0 build/stm32f4xx_hal_i2c_ex.c.o
 .text          0x0801e6f4        0x0 build/stm32f4xx_hal_can.c.o
 .text          0x0801e6f4      0x1a4 build/stm32f4xx_hal_rng.c.o
                0x0801e744                HAL_RNG_MspInit
                0x0801e748                HAL_RNG_Init
                0x0801e78c                HAL_RNG_MspDeInit
                0x0801e790                HAL_RNG_DeInit
                0x0801e7b8                HAL_RNG_GenerateRandomNumber
                0x0801e7c4                HAL_RNG_GenerateRandomNumber_IT
                0x0801e7f4                HAL_RNG_GetRandomNumber
                0x0801e814                HAL_RNG_GetRandomNumber_IT
                0x0801e83c                HAL_RNG_ReadLastRandomNumber
                0x0801e840                HAL_RNG_ReadyDataCallback
                0x0801e844                HAL_RNG_ErrorCallback
                0x0801e848                HAL_RNG_IRQHandler
                0x0801e894                HAL_RNG_GetState
 .text          0x0801e898      0xcac build/stm32f4xx_hal_uart.c.o
                0x0801ebdc                HAL_UART_Init
                0x0801ec3c                HAL_HalfDuplex_Init
                0x0801eca4                HAL_LIN_Init
                0x0801ed20                HAL_MultiProcessor_Init
                0x0801eda4                HAL_UART_MspDeInit
                0x0801eda8                HAL_UART_DeInit
                0x0801edd0                HAL_UART_Transmit
                0x0801ee74                HAL_UART_Receive
                0x0801ef28                HAL_UART_Transmit_IT
                0x0801ef6c                HAL_UART_Receive_IT
                0x0801efc0                HAL_UART_Transmit_DMA
                0x0801f04c                HAL_UART_Receive_DMA
                0x0801f0d0                HAL_UART_DMAPause
                0x0801f124                HAL_UART_DMAResume
                0x0801f18c                HAL_UART_DMAStop
                0x0801f1f0                HAL_UART_TxHalfCpltCallback
                0x0801f200                HAL_UART_RxCpltCallback
                0x0801f22c                HAL_UART_RxHalfCpltCallback
                0x0801f23c                HAL_UART_ErrorCallback
                0x0801f264                HAL_UART_IRQHandler
                0x0801f428                HAL_LIN_SendBreak
                0x0801f45c                HAL_MultiProcessor_EnterMuteMode
                0x0801f490                HAL_MultiProcessor_ExitMuteMode
                0x0801f4c4                HAL_HalfDuplex_EnableTransmitter
                0x0801f4fc                HAL_HalfDuplex_EnableReceiver
                0x0801f534                HAL_UART_GetState
                0x0801f540                HAL_UART_GetError
 .text          0x0801f544        0x0 build/stm32f4xx_hal_fmpi2c_ex.c.o
 .text          0x0801f544      0x300 build/stm32f4xx_hal_flash_ex.c.o
                0x0801f544                HAL_FLASHEx_OBProgram
                0x0801f614                HAL_FLASHEx_OBGetConfig
                0x0801f658                FLASH_Erase_Sector
                0x0801f6ac                HAL_FLASHEx_Erase_IT
                0x0801f728                FLASH_FlushCaches
                0x0801f780                HAL_FLASHEx_Erase
 .text          0x0801f844        0x0 build/stm32f4xx_hal_ltdc_ex.c.o
 .text          0x0801f844      0x328 build/stm32f4xx_hal_sram.c.o
                0x0801f844                HAL_SRAM_DMA_XferCpltCallback
                0x0801f848                HAL_SRAM_DMA_XferErrorCallback
                0x0801f850                HAL_SRAM_Init
                0x0801f8ac                HAL_SRAM_DeInit
                0x0801f8c8                HAL_SRAM_Read_8b
                0x0801f908                HAL_SRAM_Write_8b
                0x0801f954                HAL_SRAM_Read_16b
                0x0801f990                HAL_SRAM_Write_16b
                0x0801f9dc                HAL_SRAM_Read_32b
                0x0801fa18                HAL_SRAM_Write_32b
                0x0801fa64                HAL_SRAM_Read_DMA
                0x0801faa8                HAL_SRAM_Write_DMA
                0x0801fb04                HAL_SRAM_WriteOperation_Enable
                0x0801fb30                HAL_SRAM_WriteOperation_Disable
                0x0801fb64                HAL_SRAM_GetState
 .text          0x0801fb6c     0x1868 build/stm32f4xx_hal_sd.c.o
                0x0801ff28                HAL_SD_MspInit
                0x0801ff2c                HAL_SD_MspDeInit
                0x0801ff30                HAL_SD_DeInit
                0x0801ff44                HAL_SD_ReadBlocks_DMA
                0x08020050                HAL_SD_WriteBlocks_DMA
                0x08020148                HAL_SD_Erase
                0x08020278                HAL_SD_XferCpltCallback
                0x0802027c                HAL_SD_XferErrorCallback
                0x08020280                HAL_SD_IRQHandler
                0x08020320                HAL_SD_DMA_RxCpltCallback
                0x08020340                HAL_SD_DMA_RxErrorCallback
                0x08020350                HAL_SD_DMA_TxCpltCallback
                0x08020370                HAL_SD_DMA_TxErrorCallback
                0x08020380                HAL_SD_Get_CardInfo
                0x08020614                HAL_SD_Init
                0x080209f8                HAL_SD_WideBusOperation_Config
                0x08020b44                HAL_SD_StopTransfer
                0x08020b74                HAL_SD_ReadBlocks
                0x08020d28                HAL_SD_WriteBlocks
                0x08020f24                HAL_SD_CheckReadOperation
                0x08020fe0                HAL_SD_CheckWriteOperation
                0x080210bc                HAL_SD_HighSpeed
                0x08021204                HAL_SD_SendSDStatus
                0x0802133c                HAL_SD_GetStatus
                0x08021354                HAL_SD_GetCardStatus
 .text          0x080213d4        0x0 build/stm32f4xx_hal_pccard.c.o
 .text          0x080213d4        0x0 build/stm32f4xx_hal_hash.c.o
 .text          0x080213d4       0x8c build/stm32f4xx_hal_dcmi_ex.c.o
                0x080213d4                HAL_DCMI_Init
 .text          0x08021460       0xe8 build/stm32f4xx_ll_sdmmc.c.o
                0x08021460                SDIO_Init
                0x08021494                SDIO_ReadFIFO
                0x0802149c                SDIO_WriteFIFO
                0x080214a8                SDIO_PowerState_ON
                0x080214b0                SDIO_PowerState_OFF
                0x080214b8                SDIO_GetPowerState
                0x080214c0                SDIO_SendCommand
                0x080214e8                SDIO_GetCommandResponse
                0x080214f0                SDIO_GetResponse
                0x08021508                SDIO_DataConfig
                0x08021530                SDIO_GetDataCounter
                0x08021534                SDIO_GetFIFOCount
                0x0802153c                SDIO_SetSDIOReadWaitMode
 .text          0x08021548      0x198 build/stm32f4xx_hal.c.o
                0x08021550                HAL_DeInit
                0x080215a4                HAL_Init
                0x080215d0                HAL_IncTick
                0x080215e0                HAL_GetTick
                0x080215ec                HAL_Delay
                0x08021628                HAL_GetHalVersion
                0x08021630                HAL_GetREVID
                0x0802163c                HAL_GetDEVID
                0x0802164c                HAL_DBGMCU_EnableDBGSleepMode
                0x0802165c                HAL_DBGMCU_DisableDBGSleepMode
                0x0802166c                HAL_DBGMCU_EnableDBGStopMode
                0x0802167c                HAL_DBGMCU_DisableDBGStopMode
                0x0802168c                HAL_DBGMCU_EnableDBGStandbyMode
                0x0802169c                HAL_DBGMCU_DisableDBGStandbyMode
                0x080216ac                HAL_EnableCompensationCell
                0x080216c4                HAL_DisableCompensationCell
 .text          0x080216e0      0x840 build/stm32f4xx_hal_i2s.c.o
                0x080216e0                HAL_I2S_MspInit
                0x080217b0                HAL_I2S_MspDeInit
                0x080217b4                HAL_I2S_DeInit
                0x080217d8                HAL_I2S_Transmit_IT
                0x08021850                HAL_I2S_Receive_IT
                0x080218c8                HAL_I2S_Transmit_DMA
                0x08021964                HAL_I2S_Receive_DMA
                0x08021b64                HAL_I2S_TxHalfCpltCallback
                0x08021b68                I2S_DMATxHalfCplt
                0x08021b74                HAL_I2S_TxCpltCallback
                0x08021b78                HAL_I2S_RxHalfCpltCallback
                0x08021b7c                I2S_DMARxHalfCplt
                0x08021b88                HAL_I2S_RxCpltCallback
                0x08021b8c                HAL_I2S_ErrorCallback
                0x08021b90                I2S_DMAError
                0x08021bb0                HAL_I2S_GetState
                0x08021bb8                HAL_I2S_GetError
                0x08021bbc                I2S_Transmit_IT
                0x08021c14                I2S_Receive_IT
                0x08021d2c                I2S_WaitFlagStateUntilTimeout
                0x08021d9c                HAL_I2S_Transmit
                0x08021e64                HAL_I2S_Receive
 .text          0x08021f20        0x0 build/stm32f4xx_hal_wwdg.c.o
 .text          0x08021f20        0x0 build/stm32f4xx_hal_iwdg.c.o
 .text          0x08021f20      0x134 build/stm32f4xx_hal_pwr_ex.c.o
                0x08021f20                HAL_PWREx_EnableBkUpReg
                0x08021f64                HAL_PWREx_DisableBkUpReg
                0x08021fa8                HAL_PWREx_EnableFlashPowerDown
                0x08021fc4                HAL_PWREx_DisableFlashPowerDown
                0x08021fe0                HAL_PWREx_GetVoltageRange
                0x08021ff0                HAL_PWREx_ControlVoltageScaling
 .text          0x08022054        0x0 build/stm32f4xx_hal_eth.c.o
 .text          0x08022054        0x0 build/stm32f4xx_hal_dma2d.c.o
 .text          0x08022054        0x0 build/stm32f4xx_hal_crc.c.o
 .text          0x08022054        0x0 build/stm32f4xx_hal_spdifrx.c.o
 .text          0x08022054        0x0 build/stm32f4xx_hal_rtc_ex.c.o
 .text          0x08022054        0x0 build/stm32f4xx_hal_cec.c.o
 .text          0x08022054      0x444 build/stm32f4xx_hal_dcmi.c.o
                0x080220d8                HAL_DCMI_MspInit
                0x08022170                HAL_DCMI_MspDeInit
                0x08022174                HAL_DCMI_DeInit
                0x0802218c                HAL_DCMI_Start_DMA
                0x0802226c                HAL_DCMI_Stop
                0x080222dc                HAL_DCMI_ErrorCallback
                0x080222f0                HAL_DCMI_LineEventCallback
                0x080222f4                HAL_DCMI_VsyncEventCallback
                0x080222f8                HAL_DCMI_FrameEventCallback
                0x080222fc                HAL_DCMI_IRQHandler
                0x080223dc                HAL_DCMI_ConfigCROP
                0x0802241c                HAL_DCMI_DisableCROP
                0x08022454                HAL_DCMI_EnableCROP
                0x0802248c                HAL_DCMI_GetState
                0x08022494                HAL_DCMI_GetError
 .text          0x08022498        0x0 build/stm32f4xx_hal_lptim.c.o
 .text          0x08022498        0x0 build/stm32f4xx_hal_irda.c.o
 .text          0x08022498      0x39c build/stm32f4xx_ll_fsmc.c.o
                0x08022498                FSMC_NORSRAM_Init
                0x08022510                FSMC_NORSRAM_DeInit
                0x08022548                FSMC_NORSRAM_Timing_Init
                0x08022588                FSMC_NORSRAM_Extended_Timing_Init
                0x080225d0                FSMC_NORSRAM_WriteOperation_Enable
                0x080225e4                FSMC_NORSRAM_WriteOperation_Disable
                0x080225f8                FSMC_NAND_Init
                0x0802264c                FSMC_NAND_CommonSpace_Timing_Init
                0x08022688                FSMC_NAND_AttributeSpace_Timing_Init
                0x080226c4                FSMC_NAND_DeInit
                0x0802270c                FSMC_NAND_ECC_Enable
                0x08022728                FSMC_NAND_ECC_Disable
                0x08022744                FSMC_NAND_GetECC
                0x08022794                FSMC_PCCARD_Init
                0x080227bc                FSMC_PCCARD_CommonSpace_Timing_Init
                0x080227d8                FSMC_PCCARD_AttributeSpace_Timing_Init
                0x080227f4                FSMC_PCCARD_IOSpace_Timing_Init
                0x08022810                FSMC_PCCARD_DeInit
 .text          0x08022834      0xd3c build/stm32f4xx_hal_i2s_ex.c.o
                0x08022834                I2S_DMATxCplt
                0x080228b0                I2S_DMARxCplt
                0x0802296c                HAL_I2S_Init
                0x08022af0                HAL_I2SEx_TransmitReceive
                0x08022cdc                HAL_I2SEx_TransmitReceive_IT
                0x08022e14                HAL_I2SEx_TransmitReceive_DMA
                0x08022fcc                HAL_I2S_DMAPause
                0x08023080                HAL_I2S_DMAResume
                0x0802312c                HAL_I2S_DMAStop
                0x080231dc                I2SEx_TransmitReceive_IT
                0x08023330                HAL_I2S_IRQHandler
                0x08023554                I2S_GetInputClock
 .text          0x08023570     0x1498 build/stm32f4xx_ll_usb.c.o
                0x080235a4                USB_CoreInit
                0x0802361c                USB_EnableGlobalInt
                0x0802362c                USB_DisableGlobalInt
                0x0802363c                USB_SetCurrentMode
                0x08023670                USB_DevInit
                0x080237e4                USB_FlushTxFifo
                0x08023808                USB_FlushRxFifo
                0x08023828                USB_SetDevSpeed
                0x08023838                USB_GetDevSpeed
                0x08023870                USB_ActivateEndpoint
                0x08023900                USB_ActivateDedicatedEndpoint
                0x080239e4                USB_DeactivateEndpoint
                0x08023a68                USB_DeactivateDedicatedEndpoint
                0x08023ac8                USB_EPStartXfer
                0x08023d34                USB_EP0StartXfer
                0x08023ea8                USB_WritePacket
                0x08023ed4                USB_ReadPacket
                0x08023ef8                USB_EPSetStall
                0x08023f38                USB_EPClearStall
                0x08023f74                USB_StopDevice
                0x08023fd8                USB_SetDevAddress
                0x08023ff8                USB_DevConnect
                0x08024010                USB_DevDisconnect
                0x08024028                USB_ReadInterrupts
                0x08024030                USB_ReadDevAllOutEpInterrupt
                0x08024040                USB_ReadDevAllInEpInterrupt
                0x08024050                USB_ReadDevOutEPInterrupt
                0x08024064                USB_ReadDevInEPInterrupt
                0x08024088                USB_ClearInterrupts
                0x08024090                USB_GetMode
                0x08024098                USB_ActivateSetup
                0x080240d0                USB_EP0_OutStart
                0x08024114                USB_InitFSLSPClkSel
                0x08024150                USB_ResetPort
                0x08024184                USB_DriveVbus
                0x080241c8                USB_HostInit
                0x080242cc                USB_GetHostSpeed
                0x080242e0                USB_GetCurrentFrame
                0x080242ec                USB_HC_Init
                0x080243f8                USB_HC_ReadInterrupt
                0x08024418                USB_HC_Halt
                0x08024618                USB_DoPing
                0x08024690                USB_HC_StartXfer
                0x08024908                USB_StopHost
 .text          0x08024a08        0x0 build/stm32f4xx_hal_sdram.c.o
 .text          0x08024a08      0x1e8 build/stm32f4xx_hal_rcc_ex.c.o
                0x08024a08                HAL_RCC_DeInit
                0x08024a54                HAL_RCCEx_PeriphCLKConfig
                0x08024ba0                HAL_RCCEx_GetPeriphCLKConfig
 .text          0x08024bf0        0x0 build/stm32f4xx_hal_sai_ex.c.o
 .text          0x08024bf0      0x540 build/stm32f4xx_hal_dma.c.o
                0x08024bf0                HAL_DMA_Init
                0x08024cc0                HAL_DMA_DeInit
                0x08024d30                HAL_DMA_Start
                0x08024d7c                HAL_DMA_Start_IT
                0x08024dd8                HAL_DMA_Abort
                0x08024e28                HAL_DMA_PollForTransfer
                0x08024f88                HAL_DMA_IRQHandler
                0x08025124                HAL_DMA_GetState
                0x0802512c                HAL_DMA_GetError
 .text          0x08025130      0x768 build/stm32f4xx_hal_rcc.c.o
                0x08025134                HAL_RCC_OscConfig
                0x08025444                HAL_RCC_ClockConfig
                0x08025584                HAL_RCC_MCOConfig
                0x0802562c                HAL_RCC_EnableCSS
                0x08025638                HAL_RCC_DisableCSS
                0x08025644                HAL_RCC_GetSysClockFreq
                0x080256c4                HAL_RCC_GetHCLKFreq
                0x080256f8                HAL_RCC_GetPCLK1Freq
                0x08025724                HAL_RCC_GetPCLK2Freq
                0x08025750                HAL_RCC_GetOscConfig
                0x08025830                HAL_RCC_GetClockConfig
                0x08025874                HAL_RCC_CSSCallback
                0x08025878                HAL_RCC_NMI_IRQHandler
 .text          0x08025898      0x25c build/stm32f4xx_hal_cortex.c.o
                0x08025898                HAL_NVIC_SetPriorityGrouping
                0x080258bc                HAL_NVIC_SetPriority
                0x08025928                HAL_NVIC_EnableIRQ
                0x08025940                HAL_NVIC_DisableIRQ
                0x08025958                HAL_NVIC_SystemReset
                0x0802597c                HAL_SYSTICK_Config
                0x0802599c                HAL_MPU_ConfigRegion
                0x080259f8                HAL_NVIC_GetPriorityGrouping
                0x08025a08                HAL_NVIC_GetPriority
                0x08025a68                HAL_NVIC_SetPendingIRQ
                0x08025a80                HAL_NVIC_GetPendingIRQ
                0x08025a9c                HAL_NVIC_ClearPendingIRQ
                0x08025ab4                HAL_NVIC_GetActive
                0x08025ad0                HAL_SYSTICK_CLKSourceConfig
                0x08025ae8                HAL_SYSTICK_Callback
                0x08025aec                HAL_SYSTICK_IRQHandler
 .text          0x08025af4     0x2820 build/stm32f4xx_hal_i2c.c.o
                0x08026054                HAL_I2C_MspInit
                0x08026058                HAL_I2C_Init
                0x08026148                HAL_I2C_MspDeInit
                0x0802614c                HAL_I2C_DeInit
                0x08026180                HAL_I2C_Master_Transmit
                0x080262e4                HAL_I2C_Master_Receive
                0x080264b4                HAL_I2C_Slave_Transmit
                0x080265f0                HAL_I2C_Slave_Receive
                0x08026718                HAL_I2C_Master_Transmit_IT
                0x080267fc                HAL_I2C_Master_Receive_IT
                0x08026938                HAL_I2C_Master_Sequential_Transmit_IT
                0x08026a24                HAL_I2C_Master_Sequential_Receive_IT
                0x08026bac                HAL_I2C_Slave_Transmit_IT
                0x08026c24                HAL_I2C_Slave_Receive_IT
                0x08026c9c                HAL_I2C_Slave_Sequential_Transmit_IT
                0x08026d00                HAL_I2C_Slave_Sequential_Receive_IT
                0x08026d64                HAL_I2C_EnableListen_IT
                0x08026d8c                HAL_I2C_DisableListen_IT
                0x08026dd0                HAL_I2C_Master_Transmit_DMA
                0x08026ee0                HAL_I2C_Master_Receive_DMA
                0x08026ff0                HAL_I2C_Master_Abort_IT
                0x0802704c                HAL_I2C_Slave_Transmit_DMA
                0x08027168                HAL_I2C_Slave_Receive_DMA
                0x08027248                HAL_I2C_Mem_Write
                0x08027358                HAL_I2C_Mem_Read
                0x08027540                HAL_I2C_Mem_Write_IT
                0x08027620                HAL_I2C_Mem_Read_IT
                0x08027768                HAL_I2C_Mem_Write_DMA
                0x0802787c                HAL_I2C_Mem_Read_DMA
                0x080279a8                HAL_I2C_IsDeviceReady
                0x08027af0                HAL_I2C_MasterTxCpltCallback
                0x08027af4                HAL_I2C_MasterRxCpltCallback
                0x08027af8                HAL_I2C_SlaveTxCpltCallback
                0x08027afc                HAL_I2C_SlaveRxCpltCallback
                0x08027b00                HAL_I2C_AddrCallback
                0x08027b04                HAL_I2C_ListenCpltCallback
                0x08027b08                HAL_I2C_MemTxCpltCallback
                0x08027b0c                HAL_I2C_MemRxCpltCallback
                0x08027b10                HAL_I2C_EV_IRQHandler
                0x08027f4c                HAL_I2C_ErrorCallback
                0x08028160                HAL_I2C_ER_IRQHandler
                0x08028300                HAL_I2C_GetState
                0x08028308                HAL_I2C_GetMode
                0x08028310                HAL_I2C_GetError
 .text          0x08028314        0x0 build/stm32f4xx_hal_rtc.c.o
 .text          0x08028314        0x0 build/stm32f4xx_hal_cryp.c.o
 .text          0x08028314        0x0 build/stm32f4xx_hal_dac_ex.c.o
 .text          0x08028314      0x3b0 build/stm32f4xx_hal_flash.c.o
                0x080283a4                HAL_FLASH_Program_IT
                0x08028444                HAL_FLASH_EndOfOperationCallback
                0x08028448                HAL_FLASH_OperationErrorCallback
                0x0802844c                HAL_FLASH_IRQHandler
                0x0802851c                HAL_FLASH_Unlock
                0x08028540                HAL_FLASH_Lock
                0x08028554                HAL_FLASH_OB_Unlock
                0x08028578                HAL_FLASH_OB_Lock
                0x0802858c                HAL_FLASH_GetError
                0x08028598                FLASH_WaitForLastOperation
                0x080285f4                HAL_FLASH_Program
                0x080286ac                HAL_FLASH_OB_Launch
 .text          0x080286c4      0x9f4 build/stm32f4xx_hal_adc.c.o
                0x080286c8                HAL_ADC_Init
                0x0802882c                HAL_ADC_MspDeInit
                0x08028830                HAL_ADC_DeInit
                0x0802886c                HAL_ADC_Start
                0x0802894c                HAL_ADC_Stop
                0x08028988                HAL_ADC_PollForConversion
                0x08028a28                HAL_ADC_PollForEvent
                0x08028a94                HAL_ADC_Start_IT
                0x08028b80                HAL_ADC_Stop_IT
                0x08028bc8                HAL_ADC_Start_DMA
                0x08028ce4                HAL_ADC_Stop_DMA
                0x08028d44                HAL_ADC_GetValue
                0x08028d4c                HAL_ADC_ConvCpltCallback
                0x08028db0                HAL_ADC_ConvHalfCpltCallback
                0x08028dc0                HAL_ADC_LevelOutOfWindowCallback
                0x08028dc4                HAL_ADC_ErrorCallback
                0x08028dc8                HAL_ADC_IRQHandler
                0x08028f0c                HAL_ADC_ConfigChannel
                0x0802904c                HAL_ADC_AnalogWDGConfig
                0x080290b0                HAL_ADC_GetState
                0x080290b4                HAL_ADC_GetError
 .text          0x080290b8        0x0 build/stm32f4xx_hal_flash_ramfunc.c.o
 .text          0x080290b8      0xbfc build/stm32f4xx_hal_usart.c.o
                0x08029118                HAL_USART_MspInit
                0x0802911c                HAL_USART_Init
                0x08029278                HAL_USART_MspDeInit
                0x0802927c                HAL_USART_DeInit
                0x080292a8                HAL_USART_Transmit
                0x08029350                HAL_USART_Receive
                0x0802942c                HAL_USART_TransmitReceive
                0x08029528                HAL_USART_Transmit_IT
                0x0802956c                HAL_USART_Receive_IT
                0x080295c8                HAL_USART_TransmitReceive_IT
                0x0802962c                HAL_USART_Transmit_DMA
                0x080296b0                HAL_USART_Receive_DMA
                0x0802975c                HAL_USART_TransmitReceive_DMA
                0x08029834                HAL_USART_DMAPause
                0x08029858                HAL_USART_DMAResume
                0x0802987c                HAL_USART_DMAStop
                0x080298ac                HAL_USART_TxCpltCallback
                0x080298ec                HAL_USART_TxHalfCpltCallback
                0x080298fc                HAL_USART_RxCpltCallback
                0x08029900                HAL_USART_RxHalfCpltCallback
                0x08029910                HAL_USART_TxRxCpltCallback
                0x08029a64                HAL_USART_ErrorCallback
                0x08029a88                HAL_USART_IRQHandler
                0x08029ca8                HAL_USART_GetState
                0x08029cb0                HAL_USART_GetError
 .text          0x08029cb4      0x370 /home/andrew/bin/gcc-arm/bin/../lib/gcc/arm-none-eabi/4.9.3/armv7e-m/libgcc.a(_arm_addsubdf3.o)
                0x08029cb4                __aeabi_drsub
                0x08029cbc                __aeabi_dsub
                0x08029cbc                __subdf3
                0x08029cc0                __adddf3
                0x08029cc0                __aeabi_dadd
                0x08029f38                __aeabi_ui2d
                0x08029f38                __floatunsidf
                0x08029f58                __floatsidf
                0x08029f58                __aeabi_i2d
                0x08029f7c                __extendsfdf2
                0x08029f7c                __aeabi_f2d
                0x08029fb8                __aeabi_ul2d
                0x08029fb8                __floatundidf
                0x08029fc8                __floatdidf
                0x08029fc8                __aeabi_l2d
 .text          0x0802a024      0x424 /home/andrew/bin/gcc-arm/bin/../lib/gcc/arm-none-eabi/4.9.3/armv7e-m/libgcc.a(_arm_muldivdf3.o)
                0x0802a024                __aeabi_dmul
                0x0802a024                __muldf3
                0x0802a278                __aeabi_ddiv
                0x0802a278                __divdf3
 .text          0x0802a448      0x110 /home/andrew/bin/gcc-arm/bin/../lib/gcc/arm-none-eabi/4.9.3/armv7e-m/libgcc.a(_arm_cmpdf2.o)
                0x0802a448                __gtdf2
                0x0802a448                __gedf2
                0x0802a450                __ltdf2
                0x0802a450                __ledf2
                0x0802a458                __cmpdf2
                0x0802a458                __eqdf2
                0x0802a458                __nedf2
                0x0802a4d4                __aeabi_cdrcmple
                0x0802a4e4                __aeabi_cdcmple
                0x0802a4e4                __aeabi_cdcmpeq
                0x0802a4f4                __aeabi_dcmpeq
                0x0802a508                __aeabi_dcmplt
                0x0802a51c                __aeabi_dcmple
                0x0802a530                __aeabi_dcmpge
                0x0802a544                __aeabi_dcmpgt
 .text          0x0802a558       0xa0 /home/andrew/bin/gcc-arm/bin/../lib/gcc/arm-none-eabi/4.9.3/armv7e-m/libgcc.a(_arm_truncdfsf2.o)
                0x0802a558                __aeabi_d2f
                0x0802a558                __truncdfsf2
 .text          0x0802a5f8      0x21c /home/andrew/bin/gcc-arm/bin/../lib/gcc/arm-none-eabi/4.9.3/armv7e-m/libgcc.a(_arm_addsubsf3.o)
                0x0802a5f8                __aeabi_frsub
                0x0802a600                __subsf3
                0x0802a600                __aeabi_fsub
                0x0802a604                __aeabi_fadd
                0x0802a604                __addsf3
                0x0802a764                __aeabi_ui2f
                0x0802a764                __floatunsisf
                0x0802a76c                __aeabi_i2f
                0x0802a76c                __floatsisf
                0x0802a788                __floatundisf
                0x0802a788                __aeabi_ul2f
                0x0802a798                __floatdisf
                0x0802a798                __aeabi_l2f
 .text          0x0802a814      0x2a0 /home/andrew/bin/gcc-arm/bin/../lib/gcc/arm-none-eabi/4.9.3/armv7e-m/libgcc.a(_arm_muldivsf3.o)
                0x0802a814                __mulsf3
                0x0802a814                __aeabi_fmul
                0x0802a97c                __divsf3
                0x0802a97c                __aeabi_fdiv
 .text          0x0802aab4       0xec /home/andrew/bin/gcc-arm/bin/../lib/gcc/arm-none-eabi/4.9.3/armv7e-m/libgcc.a(_arm_cmpsf2.o)
                0x0802aab4                __gtsf2
                0x0802aab4                __gesf2
                0x0802aabc                __lesf2
                0x0802aabc                __ltsf2
                0x0802aac4                __nesf2
                0x0802aac4                __eqsf2
                0x0802aac4                __cmpsf2
                0x0802ab24                __aeabi_cfrcmple
                0x0802ab2c                __aeabi_cfcmple
                0x0802ab2c                __aeabi_cfcmpeq
                0x0802ab3c                __aeabi_fcmpeq
                0x0802ab50                __aeabi_fcmplt
                0x0802ab64                __aeabi_fcmple
                0x0802ab78                __aeabi_fcmpge
                0x0802ab8c                __aeabi_fcmpgt
 .text          0x0802aba0       0x4c /home/andrew/bin/gcc-arm/bin/../lib/gcc/arm-none-eabi/4.9.3/armv7e-m/libgcc.a(_arm_fixsfsi.o)
                0x0802aba0                __fixsfsi
                0x0802aba0                __aeabi_f2iz
 .text          0x0802abec       0x48 /home/andrew/bin/gcc-arm/bin/../lib/gcc/arm-none-eabi/4.9.3/armv7e-m/libgcc.a(_fixunsdfdi.o)
                0x0802abec                __aeabi_d2ulz
                0x0802abec                __fixunsdfdi
 .text          0x0802ac34       0x40 /home/andrew/bin/gcc-arm/bin/../lib/gcc/arm-none-eabi/4.9.3/armv7e-m/libgcc.a(_arm_fixunsdfsi.o)
                0x0802ac34                __fixunsdfsi
                0x0802ac34                __aeabi_d2uiz
 .text          0x0802ac74        0x0 /home/andrew/bin/gcc-arm/bin/../lib/gcc/arm-none-eabi/4.9.3/../../../../arm-none-eabi/lib/armv7e-m/libc.a(lib_a-exit.o)
 .text          0x0802ac74        0x0 /home/andrew/bin/gcc-arm/bin/../lib/gcc/arm-none-eabi/4.9.3/../../../../arm-none-eabi/lib/armv7e-m/libc.a(lib_a-impure.o)
 .text          0x0802ac74        0x0 /home/andrew/bin/gcc-arm/bin/../lib/gcc/arm-none-eabi/4.9.3/../../../../arm-none-eabi/lib/armv7e-m/libc.a(lib_a-init.o)
 .text          0x0802ac74        0x0 /home/andrew/bin/gcc-arm/bin/../lib/gcc/arm-none-eabi/4.9.3/../../../../arm-none-eabi/lib/armv7e-m/libc.a(lib_a-malloc.o)
 .text          0x0802ac74        0x0 /home/andrew/bin/gcc-arm/bin/../lib/gcc/arm-none-eabi/4.9.3/../../../../arm-none-eabi/lib/armv7e-m/libc.a(lib_a-mallocr.o)
 .text          0x0802ac74      0x134 /home/andrew/bin/gcc-arm/bin/../lib/gcc/arm-none-eabi/4.9.3/../../../../arm-none-eabi/lib/armv7e-m/libc.a(lib_a-memcpy.o)
                0x0802ac74                memcpy
 .text          0x0802ada8        0x0 /home/andrew/bin/gcc-arm/bin/../lib/gcc/arm-none-eabi/4.9.3/../../../../arm-none-eabi/lib/armv7e-m/libc.a(lib_a-memset.o)
 .text          0x0802ada8        0x0 /home/andrew/bin/gcc-arm/bin/../lib/gcc/arm-none-eabi/4.9.3/../../../../arm-none-eabi/lib/armv7e-m/libc.a(lib_a-mlock.o)
 .text          0x0802ada8        0x0 /home/andrew/bin/gcc-arm/bin/../lib/gcc/arm-none-eabi/4.9.3/../../../../arm-none-eabi/lib/armv7e-m/libc.a(lib_a-printf.o)
 .text          0x0802ada8        0x0 /home/andrew/bin/gcc-arm/bin/../lib/gcc/arm-none-eabi/4.9.3/../../../../arm-none-eabi/lib/armv7e-m/libc.a(lib_a-rand.o)
 .text          0x0802ada8        0x0 /home/andrew/bin/gcc-arm/bin/../lib/gcc/arm-none-eabi/4.9.3/../../../../arm-none-eabi/lib/armv7e-m/libc.a(lib_a-sbrkr.o)
 .text          0x0802ada8        0x0 /home/andrew/bin/gcc-arm/bin/../lib/gcc/arm-none-eabi/4.9.3/../../../../arm-none-eabi/lib/armv7e-m/libc.a(lib_a-sprintf.o)
 *fill*         0x0802ada8       0x18 
 .text          0x0802adc0      0x2e0 /home/andrew/bin/gcc-arm/bin/../lib/gcc/arm-none-eabi/4.9.3/../../../../arm-none-eabi/lib/armv7e-m/libc.a(lib_a-strcmp.o)
                0x0802adc8                strcmp
 .text          0x0802b0a0        0x0 /home/andrew/bin/gcc-arm/bin/../lib/gcc/arm-none-eabi/4.9.3/../../../../arm-none-eabi/lib/armv7e-m/libc.a(lib_a-strcpy.o)
 .text          0x0802b0a0        0x0 /home/andrew/bin/gcc-arm/bin/../lib/gcc/arm-none-eabi/4.9.3/../../../../arm-none-eabi/lib/armv7e-m/libc.a(lib_a-strlen.o)
 .text          0x0802b0a0        0x0 /home/andrew/bin/gcc-arm/bin/../lib/gcc/arm-none-eabi/4.9.3/../../../../arm-none-eabi/lib/armv7e-m/libc.a(lib_a-svfprintf.o)
 .text          0x0802b0a0        0x0 /home/andrew/bin/gcc-arm/bin/../lib/gcc/arm-none-eabi/4.9.3/../../../../arm-none-eabi/lib/armv7e-m/libc.a(lib_a-vfprintf.o)
 .text          0x0802b0a0        0x0 /home/andrew/bin/gcc-arm/bin/../lib/gcc/arm-none-eabi/4.9.3/../../../../arm-none-eabi/lib/armv7e-m/libc.a(lib_a-vsprintf.o)
 .text          0x0802b0a0        0x0 /home/andrew/bin/gcc-arm/bin/../lib/gcc/arm-none-eabi/4.9.3/../../../../arm-none-eabi/lib/armv7e-m/libc.a(lib_a-wsetup.o)
 .text          0x0802b0a0        0x0 /home/andrew/bin/gcc-arm/bin/../lib/gcc/arm-none-eabi/4.9.3/../../../../arm-none-eabi/lib/armv7e-m/libc.a(lib_a-__call_atexit.o)
 .text          0x0802b0a0        0x0 /home/andrew/bin/gcc-arm/bin/../lib/gcc/arm-none-eabi/4.9.3/../../../../arm-none-eabi/lib/armv7e-m/libc.a(lib_a-atexit.o)
 .text          0x0802b0a0        0x0 /home/andrew/bin/gcc-arm/bin/../lib/gcc/arm-none-eabi/4.9.3/../../../../arm-none-eabi/lib/armv7e-m/libc.a(lib_a-dtoa.o)
 .text          0x0802b0a0        0x0 /home/andrew/bin/gcc-arm/bin/../lib/gcc/arm-none-eabi/4.9.3/../../../../arm-none-eabi/lib/armv7e-m/libc.a(lib_a-fflush.o)
 .text          0x0802b0a0        0x0 /home/andrew/bin/gcc-arm/bin/../lib/gcc/arm-none-eabi/4.9.3/../../../../arm-none-eabi/lib/armv7e-m/libc.a(lib_a-findfp.o)
 .text          0x0802b0a0        0x0 /home/andrew/bin/gcc-arm/bin/../lib/gcc/arm-none-eabi/4.9.3/../../../../arm-none-eabi/lib/armv7e-m/libc.a(lib_a-fini.o)
 .text          0x0802b0a0        0x0 /home/andrew/bin/gcc-arm/bin/../lib/gcc/arm-none-eabi/4.9.3/../../../../arm-none-eabi/lib/armv7e-m/libc.a(lib_a-freer.o)
 .text          0x0802b0a0        0x0 /home/andrew/bin/gcc-arm/bin/../lib/gcc/arm-none-eabi/4.9.3/../../../../arm-none-eabi/lib/armv7e-m/libc.a(lib_a-fwalk.o)
 .text          0x0802b0a0        0x0 /home/andrew/bin/gcc-arm/bin/../lib/gcc/arm-none-eabi/4.9.3/../../../../arm-none-eabi/lib/armv7e-m/libc.a(lib_a-locale.o)
 .text          0x0802b0a0        0x0 /home/andrew/bin/gcc-arm/bin/../lib/gcc/arm-none-eabi/4.9.3/../../../../arm-none-eabi/lib/armv7e-m/libc.a(lib_a-makebuf.o)
 .text          0x0802b0a0        0x0 /home/andrew/bin/gcc-arm/bin/../lib/gcc/arm-none-eabi/4.9.3/../../../../arm-none-eabi/lib/armv7e-m/libc.a(lib_a-memchr.o)
 .text          0x0802b0a0        0x0 /home/andrew/bin/gcc-arm/bin/../lib/gcc/arm-none-eabi/4.9.3/../../../../arm-none-eabi/lib/armv7e-m/libc.a(lib_a-mprec.o)
 .text          0x0802b0a0        0x0 /home/andrew/bin/gcc-arm/bin/../lib/gcc/arm-none-eabi/4.9.3/../../../../arm-none-eabi/lib/armv7e-m/libc.a(lib_a-reent.o)
 .text          0x0802b0a0        0x0 /home/andrew/bin/gcc-arm/bin/../lib/gcc/arm-none-eabi/4.9.3/../../../../arm-none-eabi/lib/armv7e-m/libc.a(lib_a-s_fpclassify.o)
 .text          0x0802b0a0        0x0 /home/andrew/bin/gcc-arm/bin/../lib/gcc/arm-none-eabi/4.9.3/../../../../arm-none-eabi/lib/armv7e-m/libc.a(lib_a-stdio.o)
 .text          0x0802b0a0        0x0 /home/andrew/bin/gcc-arm/bin/../lib/gcc/arm-none-eabi/4.9.3/../../../../arm-none-eabi/lib/armv7e-m/libc.a(lib_a-svfiprintf.o)
 .text          0x0802b0a0        0x0 /home/andrew/bin/gcc-arm/bin/../lib/gcc/arm-none-eabi/4.9.3/../../../../arm-none-eabi/lib/armv7e-m/libc.a(lib_a-vfiprintf.o)
 .text          0x0802b0a0        0x0 /home/andrew/bin/gcc-arm/bin/../lib/gcc/arm-none-eabi/4.9.3/../../../../arm-none-eabi/lib/armv7e-m/libc.a(lib_a-writer.o)
 .text          0x0802b0a0        0x0 /home/andrew/bin/gcc-arm/bin/../lib/gcc/arm-none-eabi/4.9.3/../../../../arm-none-eabi/lib/armv7e-m/libc.a(lib_a-__atexit.o)
 .text          0x0802b0a0        0x0 /home/andrew/bin/gcc-arm/bin/../lib/gcc/arm-none-eabi/4.9.3/../../../../arm-none-eabi/lib/armv7e-m/libc.a(lib_a-callocr.o)
 .text          0x0802b0a0        0x0 /home/andrew/bin/gcc-arm/bin/../lib/gcc/arm-none-eabi/4.9.3/../../../../arm-none-eabi/lib/armv7e-m/libc.a(lib_a-closer.o)
 .text          0x0802b0a0        0x0 /home/andrew/bin/gcc-arm/bin/../lib/gcc/arm-none-eabi/4.9.3/../../../../arm-none-eabi/lib/armv7e-m/libc.a(lib_a-fclose.o)
 .text          0x0802b0a0        0x0 /home/andrew/bin/gcc-arm/bin/../lib/gcc/arm-none-eabi/4.9.3/../../../../arm-none-eabi/lib/armv7e-m/libc.a(lib_a-fputwc.o)
 .text          0x0802b0a0        0x0 /home/andrew/bin/gcc-arm/bin/../lib/gcc/arm-none-eabi/4.9.3/../../../../arm-none-eabi/lib/armv7e-m/libc.a(lib_a-fstatr.o)
 .text          0x0802b0a0        0x0 /home/andrew/bin/gcc-arm/bin/../lib/gcc/arm-none-eabi/4.9.3/../../../../arm-none-eabi/lib/armv7e-m/libc.a(lib_a-fvwrite.o)
 .text          0x0802b0a0        0x0 /home/andrew/bin/gcc-arm/bin/../lib/gcc/arm-none-eabi/4.9.3/../../../../arm-none-eabi/lib/armv7e-m/libc.a(lib_a-isattyr.o)
 .text          0x0802b0a0        0x0 /home/andrew/bin/gcc-arm/bin/../lib/gcc/arm-none-eabi/4.9.3/../../../../arm-none-eabi/lib/armv7e-m/libc.a(lib_a-lseekr.o)
 .text          0x0802b0a0        0x0 /home/andrew/bin/gcc-arm/bin/../lib/gcc/arm-none-eabi/4.9.3/../../../../arm-none-eabi/lib/armv7e-m/libc.a(lib_a-memmove.o)
 .text          0x0802b0a0        0x0 /home/andrew/bin/gcc-arm/bin/../lib/gcc/arm-none-eabi/4.9.3/../../../../arm-none-eabi/lib/armv7e-m/libc.a(lib_a-readr.o)
 .text          0x0802b0a0        0x0 /home/andrew/bin/gcc-arm/bin/../lib/gcc/arm-none-eabi/4.9.3/../../../../arm-none-eabi/lib/armv7e-m/libc.a(lib_a-reallocr.o)
 .text          0x0802b0a0        0x0 /home/andrew/bin/gcc-arm/bin/../lib/gcc/arm-none-eabi/4.9.3/../../../../arm-none-eabi/lib/armv7e-m/libc.a(lib_a-wbuf.o)
 .text          0x0802b0a0        0x0 /home/andrew/bin/gcc-arm/bin/../lib/gcc/arm-none-eabi/4.9.3/../../../../arm-none-eabi/lib/armv7e-m/libc.a(lib_a-wcrtomb.o)
 .text          0x0802b0a0        0x0 /home/andrew/bin/gcc-arm/bin/../lib/gcc/arm-none-eabi/4.9.3/../../../../arm-none-eabi/lib/armv7e-m/libc.a(lib_a-wctomb_r.o)
 .text          0x0802b0a0       0x50 /home/andrew/bin/gcc-arm/bin/../lib/gcc/arm-none-eabi/4.9.3/armv7e-m/libgcc.a(_arm_fixdfsi.o)
                0x0802b0a0                __fixdfsi
                0x0802b0a0                __aeabi_d2iz
 .text          0x0802b0f0       0x30 /home/andrew/bin/gcc-arm/bin/../lib/gcc/arm-none-eabi/4.9.3/armv7e-m/libgcc.a(_aeabi_uldivmod.o)
                0x0802b0f0                __aeabi_uldivmod
 .text          0x0802b120       0x60 /home/andrew/bin/gcc-arm/bin/../lib/gcc/arm-none-eabi/4.9.3/armv7e-m/libgcc.a(bpabi.o)
                0x0802b120                __gnu_ldivmod_helper
                0x0802b150                __gnu_uldivmod_helper
 .text          0x0802b180        0x4 /home/andrew/bin/gcc-arm/bin/../lib/gcc/arm-none-eabi/4.9.3/armv7e-m/libgcc.a(_dvmd_tls.o)
                0x0802b180                __aeabi_ldiv0
                0x0802b180                __aeabi_idiv0
 .text          0x0802b184      0x29c /home/andrew/bin/gcc-arm/bin/../lib/gcc/arm-none-eabi/4.9.3/armv7e-m/libgcc.a(_divdi3.o)
                0x0802b184                __divdi3
 .text          0x0802b420      0x26c /home/andrew/bin/gcc-arm/bin/../lib/gcc/arm-none-eabi/4.9.3/armv7e-m/libgcc.a(_udivdi3.o)
                0x0802b420                __udivdi3
 .text          0x0802b68c        0x0 /home/andrew/bin/gcc-arm/bin/../lib/gcc/arm-none-eabi/4.9.3/../../../../arm-none-eabi/lib/armv7e-m/libnosys.a(close.o)
 .text          0x0802b68c        0x0 /home/andrew/bin/gcc-arm/bin/../lib/gcc/arm-none-eabi/4.9.3/../../../../arm-none-eabi/lib/armv7e-m/libnosys.a(fstat.o)
 .text          0x0802b68c        0x0 /home/andrew/bin/gcc-arm/bin/../lib/gcc/arm-none-eabi/4.9.3/../../../../arm-none-eabi/lib/armv7e-m/libnosys.a(isatty.o)
 .text          0x0802b68c        0x0 /home/andrew/bin/gcc-arm/bin/../lib/gcc/arm-none-eabi/4.9.3/../../../../arm-none-eabi/lib/armv7e-m/libnosys.a(lseek.o)
 .text          0x0802b68c        0x0 /home/andrew/bin/gcc-arm/bin/../lib/gcc/arm-none-eabi/4.9.3/../../../../arm-none-eabi/lib/armv7e-m/libnosys.a(read.o)
 .text          0x0802b68c        0x0 /home/andrew/bin/gcc-arm/bin/../lib/gcc/arm-none-eabi/4.9.3/../../../../arm-none-eabi/lib/armv7e-m/libnosys.a(sbrk.o)
 .text          0x0802b68c        0x0 /home/andrew/bin/gcc-arm/bin/../lib/gcc/arm-none-eabi/4.9.3/../../../../arm-none-eabi/lib/armv7e-m/libnosys.a(_exit.o)
 .text          0x0802b68c        0x0 /home/andrew/bin/gcc-arm/bin/../lib/gcc/arm-none-eabi/4.9.3/armv7e-m/crtend.o
 .text          0x0802b68c        0x0 /home/andrew/bin/gcc-arm/bin/../lib/gcc/arm-none-eabi/4.9.3/armv7e-m/crtn.o
 *(.text*)
 .text.startup  0x0802b68c      0x138 build/main.c.o
                0x0802b68c                main
 .text.Reset_Handler
                0x0802b7c4       0x50 build/startup_stm32f407xx.s.o
                0x0802b7c4                Reset_Handler
 .text.Default_Handler
                0x0802b814        0x2 build/startup_stm32f407xx.s.o
                0x0802b814                RTC_Alarm_IRQHandler
                0x0802b814                HASH_RNG_IRQHandler
                0x0802b814                EXTI2_IRQHandler
                0x0802b814                TIM8_CC_IRQHandler
                0x0802b814                TIM1_CC_IRQHandler
                0x0802b814                DMA2_Stream5_IRQHandler
                0x0802b814                PVD_IRQHandler
                0x0802b814                SDIO_IRQHandler
                0x0802b814                TAMP_STAMP_IRQHandler
                0x0802b814                CAN2_RX1_IRQHandler
                0x0802b814                EXTI3_IRQHandler
                0x0802b814                TIM8_TRG_COM_TIM14_IRQHandler
                0x0802b814                TIM1_UP_TIM10_IRQHandler
                0x0802b814                TIM8_UP_TIM13_IRQHandler
                0x0802b814                I2C3_ER_IRQHandler
                0x0802b814                EXTI0_IRQHandler
                0x0802b814                I2C2_EV_IRQHandler
                0x0802b814                CAN1_RX0_IRQHandler
                0x0802b814                FPU_IRQHandler
                0x0802b814                OTG_HS_WKUP_IRQHandler
                0x0802b814                CAN2_SCE_IRQHandler
                0x0802b814                DMA2_Stream2_IRQHandler
                0x0802b814                TIM1_BRK_TIM9_IRQHandler
                0x0802b814                DCMI_IRQHandler
                0x0802b814                CAN2_RX0_IRQHandler
                0x0802b814                DMA2_Stream3_IRQHandler
                0x0802b814                USART6_IRQHandler
                0x0802b814                USART3_IRQHandler
                0x0802b814                CAN1_RX1_IRQHandler
                0x0802b814                UART5_IRQHandler
                0x0802b814                TIM4_IRQHandler
                0x0802b814                I2C1_EV_IRQHandler
                0x0802b814                DMA1_Stream1_IRQHandler
                0x0802b814                RCC_IRQHandler
                0x0802b814                TIM8_BRK_TIM12_IRQHandler
                0x0802b814                Default_Handler
                0x0802b814                EXTI15_10_IRQHandler
                0x0802b814                ADC_IRQHandler
                0x0802b814                DMA1_Stream7_IRQHandler
                0x0802b814                TIM7_IRQHandler
                0x0802b814                CAN2_TX_IRQHandler
                0x0802b814                TIM5_IRQHandler
                0x0802b814                DMA2_Stream7_IRQHandler
                0x0802b814                I2C3_EV_IRQHandler
                0x0802b814                EXTI9_5_IRQHandler
                0x0802b814                RTC_WKUP_IRQHandler
                0x0802b814                ETH_WKUP_IRQHandler
                0x0802b814                OTG_HS_EP1_IN_IRQHandler
                0x0802b814                CAN1_TX_IRQHandler
                0x0802b814                EXTI4_IRQHandler
                0x0802b814                FSMC_IRQHandler
                0x0802b814                ETH_IRQHandler
                0x0802b814                OTG_HS_EP1_OUT_IRQHandler
                0x0802b814                WWDG_IRQHandler
                0x0802b814                TIM2_IRQHandler
                0x0802b814                OTG_FS_WKUP_IRQHandler
                0x0802b814                TIM1_TRG_COM_TIM11_IRQHandler
                0x0802b814                EXTI1_IRQHandler
                0x0802b814                I2C2_ER_IRQHandler
                0x0802b814                DMA2_Stream1_IRQHandler
                0x0802b814                CAN1_SCE_IRQHandler
                0x0802b814                FLASH_IRQHandler
                0x0802b814                DMA2_Stream4_IRQHandler
                0x0802b814                USART1_IRQHandler
                0x0802b814                SPI3_IRQHandler
                0x0802b814                I2C1_ER_IRQHandler
                0x0802b814                DMA2_Stream6_IRQHandler
                0x0802b814                DMA1_Stream3_IRQHandler
 *fill*         0x0802b816        0x2 
 .text.exit     0x0802b818       0x20 /home/andrew/bin/gcc-arm/bin/../lib/gcc/arm-none-eabi/4.9.3/../../../../arm-none-eabi/lib/armv7e-m/libc.a(lib_a-exit.o)
                0x0802b818                exit
 .text.__libc_init_array
                0x0802b838       0x50 /home/andrew/bin/gcc-arm/bin/../lib/gcc/arm-none-eabi/4.9.3/../../../../arm-none-eabi/lib/armv7e-m/libc.a(lib_a-init.o)
                0x0802b838                __libc_init_array
 .text.malloc   0x0802b888       0x10 /home/andrew/bin/gcc-arm/bin/../lib/gcc/arm-none-eabi/4.9.3/../../../../arm-none-eabi/lib/armv7e-m/libc.a(lib_a-malloc.o)
                0x0802b888                malloc
 .text.free     0x0802b898       0x10 /home/andrew/bin/gcc-arm/bin/../lib/gcc/arm-none-eabi/4.9.3/../../../../arm-none-eabi/lib/armv7e-m/libc.a(lib_a-malloc.o)
                0x0802b898                free
 .text._malloc_r
                0x0802b8a8      0x524 /home/andrew/bin/gcc-arm/bin/../lib/gcc/arm-none-eabi/4.9.3/../../../../arm-none-eabi/lib/armv7e-m/libc.a(lib_a-mallocr.o)
                0x0802b8a8                _malloc_r
 .text.memset   0x0802bdcc       0x9c /home/andrew/bin/gcc-arm/bin/../lib/gcc/arm-none-eabi/4.9.3/../../../../arm-none-eabi/lib/armv7e-m/libc.a(lib_a-memset.o)
                0x0802bdcc                memset
 .text.__malloc_lock
                0x0802be68        0x4 /home/andrew/bin/gcc-arm/bin/../lib/gcc/arm-none-eabi/4.9.3/../../../../arm-none-eabi/lib/armv7e-m/libc.a(lib_a-mlock.o)
                0x0802be68                __malloc_lock
 .text.__malloc_unlock
                0x0802be6c        0x4 /home/andrew/bin/gcc-arm/bin/../lib/gcc/arm-none-eabi/4.9.3/../../../../arm-none-eabi/lib/armv7e-m/libc.a(lib_a-mlock.o)
                0x0802be6c                __malloc_unlock
 .text._printf_r
                0x0802be70       0x20 /home/andrew/bin/gcc-arm/bin/../lib/gcc/arm-none-eabi/4.9.3/../../../../arm-none-eabi/lib/armv7e-m/libc.a(lib_a-printf.o)
                0x0802be70                _printf_r
 .text.printf   0x0802be90       0x28 /home/andrew/bin/gcc-arm/bin/../lib/gcc/arm-none-eabi/4.9.3/../../../../arm-none-eabi/lib/armv7e-m/libc.a(lib_a-printf.o)
                0x0802be90                printf
 .text.srand    0x0802beb8       0x14 /home/andrew/bin/gcc-arm/bin/../lib/gcc/arm-none-eabi/4.9.3/../../../../arm-none-eabi/lib/armv7e-m/libc.a(lib_a-rand.o)
                0x0802beb8                srand
 .text.rand     0x0802becc       0x40 /home/andrew/bin/gcc-arm/bin/../lib/gcc/arm-none-eabi/4.9.3/../../../../arm-none-eabi/lib/armv7e-m/libc.a(lib_a-rand.o)
                0x0802becc                rand
 .text._sbrk_r  0x0802bf0c       0x24 /home/andrew/bin/gcc-arm/bin/../lib/gcc/arm-none-eabi/4.9.3/../../../../arm-none-eabi/lib/armv7e-m/libc.a(lib_a-sbrkr.o)
                0x0802bf0c                _sbrk_r
 .text._sprintf_r
                0x0802bf30       0x44 /home/andrew/bin/gcc-arm/bin/../lib/gcc/arm-none-eabi/4.9.3/../../../../arm-none-eabi/lib/armv7e-m/libc.a(lib_a-sprintf.o)
                0x0802bf30                _sprintf_r
 .text.sprintf  0x0802bf74       0x4c /home/andrew/bin/gcc-arm/bin/../lib/gcc/arm-none-eabi/4.9.3/../../../../arm-none-eabi/lib/armv7e-m/libc.a(lib_a-sprintf.o)
                0x0802bf74                sprintf
 .text.strcpy   0x0802bfc0       0xbc /home/andrew/bin/gcc-arm/bin/../lib/gcc/arm-none-eabi/4.9.3/../../../../arm-none-eabi/lib/armv7e-m/libc.a(lib_a-strcpy.o)
                0x0802bfc0                strcpy
 .text.strlen   0x0802c07c       0x5c /home/andrew/bin/gcc-arm/bin/../lib/gcc/arm-none-eabi/4.9.3/../../../../arm-none-eabi/lib/armv7e-m/libc.a(lib_a-strlen.o)
                0x0802c07c                strlen
 .text._svfprintf_r
                0x0802c0d8     0x1494 /home/andrew/bin/gcc-arm/bin/../lib/gcc/arm-none-eabi/4.9.3/../../../../arm-none-eabi/lib/armv7e-m/libc.a(lib_a-svfprintf.o)
                0x0802c0d8                _svfprintf_r
 .text._vfprintf_r
                0x0802d56c     0x13e8 /home/andrew/bin/gcc-arm/bin/../lib/gcc/arm-none-eabi/4.9.3/../../../../arm-none-eabi/lib/armv7e-m/libc.a(lib_a-vfprintf.o)
                0x0802d56c                _vfprintf_r
 .text.vfprintf
                0x0802e954       0x18 /home/andrew/bin/gcc-arm/bin/../lib/gcc/arm-none-eabi/4.9.3/../../../../arm-none-eabi/lib/armv7e-m/libc.a(lib_a-vfprintf.o)
                0x0802e954                vfprintf
 .text.__sbprintf
                0x0802e96c       0x78 /home/andrew/bin/gcc-arm/bin/../lib/gcc/arm-none-eabi/4.9.3/../../../../arm-none-eabi/lib/armv7e-m/libc.a(lib_a-vfprintf.o)
 .text._vsprintf_r
                0x0802e9e4       0x34 /home/andrew/bin/gcc-arm/bin/../lib/gcc/arm-none-eabi/4.9.3/../../../../arm-none-eabi/lib/armv7e-m/libc.a(lib_a-vsprintf.o)
                0x0802e9e4                _vsprintf_r
 .text.vsprintf
                0x0802ea18       0x18 /home/andrew/bin/gcc-arm/bin/../lib/gcc/arm-none-eabi/4.9.3/../../../../arm-none-eabi/lib/armv7e-m/libc.a(lib_a-vsprintf.o)
                0x0802ea18                vsprintf
 .text.__swsetup_r
                0x0802ea30       0xc4 /home/andrew/bin/gcc-arm/bin/../lib/gcc/arm-none-eabi/4.9.3/../../../../arm-none-eabi/lib/armv7e-m/libc.a(lib_a-wsetup.o)
                0x0802ea30                __swsetup_r
 .text.startup.register_fini
                0x0802eaf4       0x14 /home/andrew/bin/gcc-arm/bin/../lib/gcc/arm-none-eabi/4.9.3/../../../../arm-none-eabi/lib/armv7e-m/libc.a(lib_a-__call_atexit.o)
 .text.__call_exitprocs
                0x0802eb08       0xd4 /home/andrew/bin/gcc-arm/bin/../lib/gcc/arm-none-eabi/4.9.3/../../../../arm-none-eabi/lib/armv7e-m/libc.a(lib_a-__call_atexit.o)
                0x0802eb08                __call_exitprocs
 .text.atexit   0x0802ebdc        0xc /home/andrew/bin/gcc-arm/bin/../lib/gcc/arm-none-eabi/4.9.3/../../../../arm-none-eabi/lib/armv7e-m/libc.a(lib_a-atexit.o)
                0x0802ebdc                atexit
 .text.quorem   0x0802ebe8      0x12c /home/andrew/bin/gcc-arm/bin/../lib/gcc/arm-none-eabi/4.9.3/../../../../arm-none-eabi/lib/armv7e-m/libc.a(lib_a-dtoa.o)
 *fill*         0x0802ed14        0x4 
 .text._dtoa_r  0x0802ed18      0xe98 /home/andrew/bin/gcc-arm/bin/../lib/gcc/arm-none-eabi/4.9.3/../../../../arm-none-eabi/lib/armv7e-m/libc.a(lib_a-dtoa.o)
                0x0802ed18                _dtoa_r
 .text.__sflush_r
                0x0802fbb0      0x154 /home/andrew/bin/gcc-arm/bin/../lib/gcc/arm-none-eabi/4.9.3/../../../../arm-none-eabi/lib/armv7e-m/libc.a(lib_a-fflush.o)
                0x0802fbb0                __sflush_r
 .text._fflush_r
                0x0802fd04       0x2c /home/andrew/bin/gcc-arm/bin/../lib/gcc/arm-none-eabi/4.9.3/../../../../arm-none-eabi/lib/armv7e-m/libc.a(lib_a-fflush.o)
                0x0802fd04                _fflush_r
 .text.fflush   0x0802fd30       0x24 /home/andrew/bin/gcc-arm/bin/../lib/gcc/arm-none-eabi/4.9.3/../../../../arm-none-eabi/lib/armv7e-m/libc.a(lib_a-fflush.o)
                0x0802fd30                fflush
 .text.__fp_lock
                0x0802fd54        0x4 /home/andrew/bin/gcc-arm/bin/../lib/gcc/arm-none-eabi/4.9.3/../../../../arm-none-eabi/lib/armv7e-m/libc.a(lib_a-findfp.o)
 .text.__fp_unlock
                0x0802fd58        0x4 /home/andrew/bin/gcc-arm/bin/../lib/gcc/arm-none-eabi/4.9.3/../../../../arm-none-eabi/lib/armv7e-m/libc.a(lib_a-findfp.o)
 .text._cleanup_r
                0x0802fd5c        0xc /home/andrew/bin/gcc-arm/bin/../lib/gcc/arm-none-eabi/4.9.3/../../../../arm-none-eabi/lib/armv7e-m/libc.a(lib_a-findfp.o)
                0x0802fd5c                _cleanup_r
 .text.__sinit.part.1
                0x0802fd68       0xf0 /home/andrew/bin/gcc-arm/bin/../lib/gcc/arm-none-eabi/4.9.3/../../../../arm-none-eabi/lib/armv7e-m/libc.a(lib_a-findfp.o)
 .text.__sfmoreglue
                0x0802fe58       0x30 /home/andrew/bin/gcc-arm/bin/../lib/gcc/arm-none-eabi/4.9.3/../../../../arm-none-eabi/lib/armv7e-m/libc.a(lib_a-findfp.o)
                0x0802fe58                __sfmoreglue
 .text.__sfp    0x0802fe88       0x88 /home/andrew/bin/gcc-arm/bin/../lib/gcc/arm-none-eabi/4.9.3/../../../../arm-none-eabi/lib/armv7e-m/libc.a(lib_a-findfp.o)
                0x0802fe88                __sfp
 .text._cleanup
                0x0802ff10       0x14 /home/andrew/bin/gcc-arm/bin/../lib/gcc/arm-none-eabi/4.9.3/../../../../arm-none-eabi/lib/armv7e-m/libc.a(lib_a-findfp.o)
                0x0802ff10                _cleanup
 .text.__sinit  0x0802ff24        0xc /home/andrew/bin/gcc-arm/bin/../lib/gcc/arm-none-eabi/4.9.3/../../../../arm-none-eabi/lib/armv7e-m/libc.a(lib_a-findfp.o)
                0x0802ff24                __sinit
 .text.__sfp_lock_acquire
                0x0802ff30        0x4 /home/andrew/bin/gcc-arm/bin/../lib/gcc/arm-none-eabi/4.9.3/../../../../arm-none-eabi/lib/armv7e-m/libc.a(lib_a-findfp.o)
                0x0802ff30                __sfp_lock_acquire
 .text.__sfp_lock_release
                0x0802ff34        0x4 /home/andrew/bin/gcc-arm/bin/../lib/gcc/arm-none-eabi/4.9.3/../../../../arm-none-eabi/lib/armv7e-m/libc.a(lib_a-findfp.o)
                0x0802ff34                __sfp_lock_release
 .text.__sinit_lock_acquire
                0x0802ff38        0x4 /home/andrew/bin/gcc-arm/bin/../lib/gcc/arm-none-eabi/4.9.3/../../../../arm-none-eabi/lib/armv7e-m/libc.a(lib_a-findfp.o)
                0x0802ff38                __sinit_lock_acquire
 .text.__sinit_lock_release
                0x0802ff3c        0x4 /home/andrew/bin/gcc-arm/bin/../lib/gcc/arm-none-eabi/4.9.3/../../../../arm-none-eabi/lib/armv7e-m/libc.a(lib_a-findfp.o)
                0x0802ff3c                __sinit_lock_release
 .text.__fp_lock_all
                0x0802ff40       0x14 /home/andrew/bin/gcc-arm/bin/../lib/gcc/arm-none-eabi/4.9.3/../../../../arm-none-eabi/lib/armv7e-m/libc.a(lib_a-findfp.o)
                0x0802ff40                __fp_lock_all
 .text.__fp_unlock_all
                0x0802ff54       0x14 /home/andrew/bin/gcc-arm/bin/../lib/gcc/arm-none-eabi/4.9.3/../../../../arm-none-eabi/lib/armv7e-m/libc.a(lib_a-findfp.o)
                0x0802ff54                __fp_unlock_all
 .text.__libc_fini_array
                0x0802ff68       0x2c /home/andrew/bin/gcc-arm/bin/../lib/gcc/arm-none-eabi/4.9.3/../../../../arm-none-eabi/lib/armv7e-m/libc.a(lib_a-fini.o)
                0x0802ff68                __libc_fini_array
 .text._malloc_trim_r
                0x0802ff94       0x9c /home/andrew/bin/gcc-arm/bin/../lib/gcc/arm-none-eabi/4.9.3/../../../../arm-none-eabi/lib/armv7e-m/libc.a(lib_a-freer.o)
                0x0802ff94                _malloc_trim_r
 .text._free_r  0x08030030      0x1b0 /home/andrew/bin/gcc-arm/bin/../lib/gcc/arm-none-eabi/4.9.3/../../../../arm-none-eabi/lib/armv7e-m/libc.a(lib_a-freer.o)
                0x08030030                _free_r
 .text._fwalk   0x080301e0       0x4c /home/andrew/bin/gcc-arm/bin/../lib/gcc/arm-none-eabi/4.9.3/../../../../arm-none-eabi/lib/armv7e-m/libc.a(lib_a-fwalk.o)
                0x080301e0                _fwalk
 .text._fwalk_reent
                0x0803022c       0x54 /home/andrew/bin/gcc-arm/bin/../lib/gcc/arm-none-eabi/4.9.3/../../../../arm-none-eabi/lib/armv7e-m/libc.a(lib_a-fwalk.o)
                0x0803022c                _fwalk_reent
 .text._setlocale_r
                0x08030280       0x44 /home/andrew/bin/gcc-arm/bin/../lib/gcc/arm-none-eabi/4.9.3/../../../../arm-none-eabi/lib/armv7e-m/libc.a(lib_a-locale.o)
                0x08030280                _setlocale_r
 .text.__locale_charset
                0x080302c4        0x8 /home/andrew/bin/gcc-arm/bin/../lib/gcc/arm-none-eabi/4.9.3/../../../../arm-none-eabi/lib/armv7e-m/libc.a(lib_a-locale.o)
                0x080302c4                __locale_charset
 .text.__locale_mb_cur_max
                0x080302cc        0xc /home/andrew/bin/gcc-arm/bin/../lib/gcc/arm-none-eabi/4.9.3/../../../../arm-none-eabi/lib/armv7e-m/libc.a(lib_a-locale.o)
                0x080302cc                __locale_mb_cur_max
 .text.__locale_msgcharset
                0x080302d8        0x8 /home/andrew/bin/gcc-arm/bin/../lib/gcc/arm-none-eabi/4.9.3/../../../../arm-none-eabi/lib/armv7e-m/libc.a(lib_a-locale.o)
                0x080302d8                __locale_msgcharset
 .text.__locale_cjk_lang
                0x080302e0        0x4 /home/andrew/bin/gcc-arm/bin/../lib/gcc/arm-none-eabi/4.9.3/../../../../arm-none-eabi/lib/armv7e-m/libc.a(lib_a-locale.o)
                0x080302e0                __locale_cjk_lang
 .text._localeconv_r
                0x080302e4        0x8 /home/andrew/bin/gcc-arm/bin/../lib/gcc/arm-none-eabi/4.9.3/../../../../arm-none-eabi/lib/armv7e-m/libc.a(lib_a-locale.o)
                0x080302e4                _localeconv_r
 .text.setlocale
                0x080302ec       0x10 /home/andrew/bin/gcc-arm/bin/../lib/gcc/arm-none-eabi/4.9.3/../../../../arm-none-eabi/lib/armv7e-m/libc.a(lib_a-locale.o)
                0x080302ec                setlocale
 .text.localeconv
                0x080302fc        0x8 /home/andrew/bin/gcc-arm/bin/../lib/gcc/arm-none-eabi/4.9.3/../../../../arm-none-eabi/lib/armv7e-m/libc.a(lib_a-locale.o)
                0x080302fc                localeconv
 .text.__smakebuf_r
                0x08030304       0xe0 /home/andrew/bin/gcc-arm/bin/../lib/gcc/arm-none-eabi/4.9.3/../../../../arm-none-eabi/lib/armv7e-m/libc.a(lib_a-makebuf.o)
                0x08030304                __smakebuf_r
 .text.memchr   0x080303e4       0x94 /home/andrew/bin/gcc-arm/bin/../lib/gcc/arm-none-eabi/4.9.3/../../../../arm-none-eabi/lib/armv7e-m/libc.a(lib_a-memchr.o)
                0x080303e4                memchr
 .text._Balloc  0x08030478       0x4c /home/andrew/bin/gcc-arm/bin/../lib/gcc/arm-none-eabi/4.9.3/../../../../arm-none-eabi/lib/armv7e-m/libc.a(lib_a-mprec.o)
                0x08030478                _Balloc
 .text._Bfree   0x080304c4       0x14 /home/andrew/bin/gcc-arm/bin/../lib/gcc/arm-none-eabi/4.9.3/../../../../arm-none-eabi/lib/armv7e-m/libc.a(lib_a-mprec.o)
                0x080304c4                _Bfree
 .text.__multadd
                0x080304d8       0x84 /home/andrew/bin/gcc-arm/bin/../lib/gcc/arm-none-eabi/4.9.3/../../../../arm-none-eabi/lib/armv7e-m/libc.a(lib_a-mprec.o)
                0x080304d8                __multadd
 .text.__s2b    0x0803055c       0x98 /home/andrew/bin/gcc-arm/bin/../lib/gcc/arm-none-eabi/4.9.3/../../../../arm-none-eabi/lib/armv7e-m/libc.a(lib_a-mprec.o)
                0x0803055c                __s2b
 .text.__hi0bits
                0x080305f4       0x40 /home/andrew/bin/gcc-arm/bin/../lib/gcc/arm-none-eabi/4.9.3/../../../../arm-none-eabi/lib/armv7e-m/libc.a(lib_a-mprec.o)
                0x080305f4                __hi0bits
 .text.__lo0bits
                0x08030634       0x5c /home/andrew/bin/gcc-arm/bin/../lib/gcc/arm-none-eabi/4.9.3/../../../../arm-none-eabi/lib/armv7e-m/libc.a(lib_a-mprec.o)
                0x08030634                __lo0bits
 .text.__i2b    0x08030690       0x14 /home/andrew/bin/gcc-arm/bin/../lib/gcc/arm-none-eabi/4.9.3/../../../../arm-none-eabi/lib/armv7e-m/libc.a(lib_a-mprec.o)
                0x08030690                __i2b
 .text.__multiply
                0x080306a4      0x134 /home/andrew/bin/gcc-arm/bin/../lib/gcc/arm-none-eabi/4.9.3/../../../../arm-none-eabi/lib/armv7e-m/libc.a(lib_a-mprec.o)
                0x080306a4                __multiply
 .text.__pow5mult
                0x080307d8       0xa0 /home/andrew/bin/gcc-arm/bin/../lib/gcc/arm-none-eabi/4.9.3/../../../../arm-none-eabi/lib/armv7e-m/libc.a(lib_a-mprec.o)
                0x080307d8                __pow5mult
 .text.__lshift
                0x08030878       0xac /home/andrew/bin/gcc-arm/bin/../lib/gcc/arm-none-eabi/4.9.3/../../../../arm-none-eabi/lib/armv7e-m/libc.a(lib_a-mprec.o)
                0x08030878                __lshift
 .text.__mcmp   0x08030924       0x48 /home/andrew/bin/gcc-arm/bin/../lib/gcc/arm-none-eabi/4.9.3/../../../../arm-none-eabi/lib/armv7e-m/libc.a(lib_a-mprec.o)
                0x08030924                __mcmp
 .text.__mdiff  0x0803096c       0xd4 /home/andrew/bin/gcc-arm/bin/../lib/gcc/arm-none-eabi/4.9.3/../../../../arm-none-eabi/lib/armv7e-m/libc.a(lib_a-mprec.o)
                0x0803096c                __mdiff
 .text.__ulp    0x08030a40       0x40 /home/andrew/bin/gcc-arm/bin/../lib/gcc/arm-none-eabi/4.9.3/../../../../arm-none-eabi/lib/armv7e-m/libc.a(lib_a-mprec.o)
                0x08030a40                __ulp
 .text.__b2d    0x08030a80       0xc4 /home/andrew/bin/gcc-arm/bin/../lib/gcc/arm-none-eabi/4.9.3/../../../../arm-none-eabi/lib/armv7e-m/libc.a(lib_a-mprec.o)
                0x08030a80                __b2d
 .text.__d2b    0x08030b44       0xb8 /home/andrew/bin/gcc-arm/bin/../lib/gcc/arm-none-eabi/4.9.3/../../../../arm-none-eabi/lib/armv7e-m/libc.a(lib_a-mprec.o)
                0x08030b44                __d2b
 .text.__ratio  0x08030bfc       0x58 /home/andrew/bin/gcc-arm/bin/../lib/gcc/arm-none-eabi/4.9.3/../../../../arm-none-eabi/lib/armv7e-m/libc.a(lib_a-mprec.o)
                0x08030bfc                __ratio
 .text._mprec_log10
                0x08030c54       0x34 /home/andrew/bin/gcc-arm/bin/../lib/gcc/arm-none-eabi/4.9.3/../../../../arm-none-eabi/lib/armv7e-m/libc.a(lib_a-mprec.o)
                0x08030c54                _mprec_log10
 .text.__copybits
                0x08030c88       0x48 /home/andrew/bin/gcc-arm/bin/../lib/gcc/arm-none-eabi/4.9.3/../../../../arm-none-eabi/lib/armv7e-m/libc.a(lib_a-mprec.o)
                0x08030c88                __copybits
 .text.__any_on
                0x08030cd0       0x60 /home/andrew/bin/gcc-arm/bin/../lib/gcc/arm-none-eabi/4.9.3/../../../../arm-none-eabi/lib/armv7e-m/libc.a(lib_a-mprec.o)
                0x08030cd0                __any_on
 .text.cleanup_glue
                0x08030d30       0x1c /home/andrew/bin/gcc-arm/bin/../lib/gcc/arm-none-eabi/4.9.3/../../../../arm-none-eabi/lib/armv7e-m/libc.a(lib_a-reent.o)
                0x08030d30                cleanup_glue
 .text._reclaim_reent
                0x08030d4c       0x88 /home/andrew/bin/gcc-arm/bin/../lib/gcc/arm-none-eabi/4.9.3/../../../../arm-none-eabi/lib/armv7e-m/libc.a(lib_a-reent.o)
                0x08030d4c                _reclaim_reent
 .text.__fpclassifyd
                0x08030dd4       0x58 /home/andrew/bin/gcc-arm/bin/../lib/gcc/arm-none-eabi/4.9.3/../../../../arm-none-eabi/lib/armv7e-m/libc.a(lib_a-s_fpclassify.o)
                0x08030dd4                __fpclassifyd
 .text.__sread  0x08030e2c       0x24 /home/andrew/bin/gcc-arm/bin/../lib/gcc/arm-none-eabi/4.9.3/../../../../arm-none-eabi/lib/armv7e-m/libc.a(lib_a-stdio.o)
                0x08030e2c                __sread
 .text.__seofread
                0x08030e50        0x4 /home/andrew/bin/gcc-arm/bin/../lib/gcc/arm-none-eabi/4.9.3/../../../../arm-none-eabi/lib/armv7e-m/libc.a(lib_a-stdio.o)
                0x08030e50                __seofread
 .text.__swrite
                0x08030e54       0x38 /home/andrew/bin/gcc-arm/bin/../lib/gcc/arm-none-eabi/4.9.3/../../../../arm-none-eabi/lib/armv7e-m/libc.a(lib_a-stdio.o)
                0x08030e54                __swrite
 .text.__sseek  0x08030e8c       0x20 /home/andrew/bin/gcc-arm/bin/../lib/gcc/arm-none-eabi/4.9.3/../../../../arm-none-eabi/lib/armv7e-m/libc.a(lib_a-stdio.o)
                0x08030e8c                __sseek
 .text.__sclose
                0x08030eac        0x8 /home/andrew/bin/gcc-arm/bin/../lib/gcc/arm-none-eabi/4.9.3/../../../../arm-none-eabi/lib/armv7e-m/libc.a(lib_a-stdio.o)
                0x08030eac                __sclose
 .text.__ssprint_r
                0x08030eb4      0x104 /home/andrew/bin/gcc-arm/bin/../lib/gcc/arm-none-eabi/4.9.3/../../../../arm-none-eabi/lib/armv7e-m/libc.a(lib_a-svfiprintf.o)
                0x08030eb4                __ssprint_r
 .text._svfiprintf_r
                0x08030fb8      0xa94 /home/andrew/bin/gcc-arm/bin/../lib/gcc/arm-none-eabi/4.9.3/../../../../arm-none-eabi/lib/armv7e-m/libc.a(lib_a-svfiprintf.o)
                0x08030fb8                _svfiprintf_r
 .text.__sprint_r.part.0
                0x08031a4c       0x78 /home/andrew/bin/gcc-arm/bin/../lib/gcc/arm-none-eabi/4.9.3/../../../../arm-none-eabi/lib/armv7e-m/libc.a(lib_a-vfiprintf.o)
 .text.__sprint_r
                0x08031ac4       0x18 /home/andrew/bin/gcc-arm/bin/../lib/gcc/arm-none-eabi/4.9.3/../../../../arm-none-eabi/lib/armv7e-m/libc.a(lib_a-vfiprintf.o)
                0x08031ac4                __sprint_r
 .text._vfiprintf_r
                0x08031adc      0xc04 /home/andrew/bin/gcc-arm/bin/../lib/gcc/arm-none-eabi/4.9.3/../../../../arm-none-eabi/lib/armv7e-m/libc.a(lib_a-vfiprintf.o)
                0x08031adc                _vfiprintf_r
 .text.vfiprintf
                0x080326e0       0x18 /home/andrew/bin/gcc-arm/bin/../lib/gcc/arm-none-eabi/4.9.3/../../../../arm-none-eabi/lib/armv7e-m/libc.a(lib_a-vfiprintf.o)
                0x080326e0                vfiprintf
 .text.__sbprintf
                0x080326f8       0x78 /home/andrew/bin/gcc-arm/bin/../lib/gcc/arm-none-eabi/4.9.3/../../../../arm-none-eabi/lib/armv7e-m/libc.a(lib_a-vfiprintf.o)
 .text._write_r
                0x08032770       0x28 /home/andrew/bin/gcc-arm/bin/../lib/gcc/arm-none-eabi/4.9.3/../../../../arm-none-eabi/lib/armv7e-m/libc.a(lib_a-writer.o)
                0x08032770                _write_r
 .text.__register_exitproc
                0x08032798       0xa4 /home/andrew/bin/gcc-arm/bin/../lib/gcc/arm-none-eabi/4.9.3/../../../../arm-none-eabi/lib/armv7e-m/libc.a(lib_a-__atexit.o)
                0x08032798                __register_exitproc
 .text._calloc_r
                0x0803283c       0x60 /home/andrew/bin/gcc-arm/bin/../lib/gcc/arm-none-eabi/4.9.3/../../../../arm-none-eabi/lib/armv7e-m/libc.a(lib_a-callocr.o)
                0x0803283c                _calloc_r
 .text._close_r
                0x0803289c       0x24 /home/andrew/bin/gcc-arm/bin/../lib/gcc/arm-none-eabi/4.9.3/../../../../arm-none-eabi/lib/armv7e-m/libc.a(lib_a-closer.o)
                0x0803289c                _close_r
 .text._fclose_r
                0x080328c0       0x84 /home/andrew/bin/gcc-arm/bin/../lib/gcc/arm-none-eabi/4.9.3/../../../../arm-none-eabi/lib/armv7e-m/libc.a(lib_a-fclose.o)
                0x080328c0                _fclose_r
 .text.fclose   0x08032944       0x10 /home/andrew/bin/gcc-arm/bin/../lib/gcc/arm-none-eabi/4.9.3/../../../../arm-none-eabi/lib/armv7e-m/libc.a(lib_a-fclose.o)
                0x08032944                fclose
 .text.__fputwc
                0x08032954       0xb0 /home/andrew/bin/gcc-arm/bin/../lib/gcc/arm-none-eabi/4.9.3/../../../../arm-none-eabi/lib/armv7e-m/libc.a(lib_a-fputwc.o)
                0x08032954                __fputwc
 .text._fputwc_r
                0x08032a04       0x24 /home/andrew/bin/gcc-arm/bin/../lib/gcc/arm-none-eabi/4.9.3/../../../../arm-none-eabi/lib/armv7e-m/libc.a(lib_a-fputwc.o)
                0x08032a04                _fputwc_r
 .text.fputwc   0x08032a28       0x28 /home/andrew/bin/gcc-arm/bin/../lib/gcc/arm-none-eabi/4.9.3/../../../../arm-none-eabi/lib/armv7e-m/libc.a(lib_a-fputwc.o)
                0x08032a28                fputwc
 .text._fstat_r
                0x08032a50       0x28 /home/andrew/bin/gcc-arm/bin/../lib/gcc/arm-none-eabi/4.9.3/../../../../arm-none-eabi/lib/armv7e-m/libc.a(lib_a-fstatr.o)
                0x08032a50                _fstat_r
 .text.__sfvwrite_r
                0x08032a78      0x318 /home/andrew/bin/gcc-arm/bin/../lib/gcc/arm-none-eabi/4.9.3/../../../../arm-none-eabi/lib/armv7e-m/libc.a(lib_a-fvwrite.o)
                0x08032a78                __sfvwrite_r
 .text._isatty_r
                0x08032d90       0x24 /home/andrew/bin/gcc-arm/bin/../lib/gcc/arm-none-eabi/4.9.3/../../../../arm-none-eabi/lib/armv7e-m/libc.a(lib_a-isattyr.o)
                0x08032d90                _isatty_r
 .text._lseek_r
                0x08032db4       0x28 /home/andrew/bin/gcc-arm/bin/../lib/gcc/arm-none-eabi/4.9.3/../../../../arm-none-eabi/lib/armv7e-m/libc.a(lib_a-lseekr.o)
                0x08032db4                _lseek_r
 .text.memmove  0x08032ddc       0xc8 /home/andrew/bin/gcc-arm/bin/../lib/gcc/arm-none-eabi/4.9.3/../../../../arm-none-eabi/lib/armv7e-m/libc.a(lib_a-memmove.o)
                0x08032ddc                memmove
 .text._read_r  0x08032ea4       0x28 /home/andrew/bin/gcc-arm/bin/../lib/gcc/arm-none-eabi/4.9.3/../../../../arm-none-eabi/lib/armv7e-m/libc.a(lib_a-readr.o)
                0x08032ea4                _read_r
 .text._realloc_r
                0x08032ecc      0x3ec /home/andrew/bin/gcc-arm/bin/../lib/gcc/arm-none-eabi/4.9.3/../../../../arm-none-eabi/lib/armv7e-m/libc.a(lib_a-reallocr.o)
                0x08032ecc                _realloc_r
 .text.__swbuf_r
                0x080332b8       0xa8 /home/andrew/bin/gcc-arm/bin/../lib/gcc/arm-none-eabi/4.9.3/../../../../arm-none-eabi/lib/armv7e-m/libc.a(lib_a-wbuf.o)
                0x080332b8                __swbuf_r
 .text.__swbuf  0x08033360       0x10 /home/andrew/bin/gcc-arm/bin/../lib/gcc/arm-none-eabi/4.9.3/../../../../arm-none-eabi/lib/armv7e-m/libc.a(lib_a-wbuf.o)
                0x08033360                __swbuf
 .text._wcrtomb_r
                0x08033370       0x54 /home/andrew/bin/gcc-arm/bin/../lib/gcc/arm-none-eabi/4.9.3/../../../../arm-none-eabi/lib/armv7e-m/libc.a(lib_a-wcrtomb.o)
                0x08033370                _wcrtomb_r
 .text.wcrtomb  0x080333c4       0x58 /home/andrew/bin/gcc-arm/bin/../lib/gcc/arm-none-eabi/4.9.3/../../../../arm-none-eabi/lib/armv7e-m/libc.a(lib_a-wcrtomb.o)
                0x080333c4                wcrtomb
 .text.__ascii_wctomb
                0x0803341c       0x1c /home/andrew/bin/gcc-arm/bin/../lib/gcc/arm-none-eabi/4.9.3/../../../../arm-none-eabi/lib/armv7e-m/libc.a(lib_a-wctomb_r.o)
                0x0803341c                __ascii_wctomb
 .text._wctomb_r
                0x08033438       0x30 /home/andrew/bin/gcc-arm/bin/../lib/gcc/arm-none-eabi/4.9.3/../../../../arm-none-eabi/lib/armv7e-m/libc.a(lib_a-wctomb_r.o)
                0x08033438                _wctomb_r
 .text._close   0x08033468       0x10 /home/andrew/bin/gcc-arm/bin/../lib/gcc/arm-none-eabi/4.9.3/../../../../arm-none-eabi/lib/armv7e-m/libnosys.a(close.o)
                0x08033468                _close
 .text._fstat   0x08033478       0x10 /home/andrew/bin/gcc-arm/bin/../lib/gcc/arm-none-eabi/4.9.3/../../../../arm-none-eabi/lib/armv7e-m/libnosys.a(fstat.o)
                0x08033478                _fstat
 .text._isatty  0x08033488       0x10 /home/andrew/bin/gcc-arm/bin/../lib/gcc/arm-none-eabi/4.9.3/../../../../arm-none-eabi/lib/armv7e-m/libnosys.a(isatty.o)
                0x08033488                _isatty
 .text._lseek   0x08033498       0x10 /home/andrew/bin/gcc-arm/bin/../lib/gcc/arm-none-eabi/4.9.3/../../../../arm-none-eabi/lib/armv7e-m/libnosys.a(lseek.o)
                0x08033498                _lseek
 .text._read    0x080334a8       0x10 /home/andrew/bin/gcc-arm/bin/../lib/gcc/arm-none-eabi/4.9.3/../../../../arm-none-eabi/lib/armv7e-m/libnosys.a(read.o)
                0x080334a8                _read
 .text._sbrk    0x080334b8       0x1c /home/andrew/bin/gcc-arm/bin/../lib/gcc/arm-none-eabi/4.9.3/../../../../arm-none-eabi/lib/armv7e-m/libnosys.a(sbrk.o)
                0x080334b8                _sbrk
 .text._exit    0x080334d4        0x4 /home/andrew/bin/gcc-arm/bin/../lib/gcc/arm-none-eabi/4.9.3/../../../../arm-none-eabi/lib/armv7e-m/libnosys.a(_exit.o)
                0x080334d4                _exit
 *(.glue_7)
 .glue_7        0x00000000        0x0 linker stubs
 *(.glue_7t)
 .glue_7t       0x00000000        0x0 linker stubs
 *(.eh_frame)
 .eh_frame      0x080334d8        0x0 /home/andrew/bin/gcc-arm/bin/../lib/gcc/arm-none-eabi/4.9.3/armv7e-m/crtbegin.o
 .eh_frame      0x080334d8       0x70 /home/andrew/bin/gcc-arm/bin/../lib/gcc/arm-none-eabi/4.9.3/../../../../arm-none-eabi/lib/armv7e-m/libc.a(lib_a-strcmp.o)
 .eh_frame      0x08033548        0x4 /home/andrew/bin/gcc-arm/bin/../lib/gcc/arm-none-eabi/4.9.3/armv7e-m/crtend.o
 *(.init)
 .init          0x0803354c        0x4 /home/andrew/bin/gcc-arm/bin/../lib/gcc/arm-none-eabi/4.9.3/armv7e-m/crti.o
                0x0803354c                _init
 .init          0x08033550        0x8 /home/andrew/bin/gcc-arm/bin/../lib/gcc/arm-none-eabi/4.9.3/armv7e-m/crtn.o
 *(.fini)
 .fini          0x08033558        0x4 /home/andrew/bin/gcc-arm/bin/../lib/gcc/arm-none-eabi/4.9.3/armv7e-m/crti.o
                0x08033558                _fini
 .fini          0x0803355c        0x8 /home/andrew/bin/gcc-arm/bin/../lib/gcc/arm-none-eabi/4.9.3/armv7e-m/crtn.o
                0x08033564                . = ALIGN (0x4)
                0x08033564                _etext = .

.vfp11_veneer   0x08033564        0x0
 .vfp11_veneer  0x00000000        0x0 linker stubs

.v4_bx          0x08033564        0x0
 .v4_bx         0x00000000        0x0 linker stubs

.iplt           0x08033564        0x0
 .iplt          0x00000000        0x0 /home/andrew/bin/gcc-arm/bin/../lib/gcc/arm-none-eabi/4.9.3/armv7e-m/crtbegin.o

.rodata         0x08033568     0x4210
                0x08033568                . = ALIGN (0x4)
 *(.rodata)
 .rodata        0x08033568      0x2f8 build/font_sinclair_8x8.c.o
                0x08033568                font_sinclair_8x8_bitmap
 .rodata        0x08033860      0x474 build/font_system_8x12.c.o
                0x08033860                font_system_8x12_bitmap
 .rodata        0x08033cd4       0x4c build/seq_utils.c.o
                0x08033cd4                seq_utils_step_size
 .rodata        0x08033d20        0x4 build/usbh_conf.c.o
 .rodata        0x08033d24      0x100 build/pattern.c.o
                0x08033d24                pattern_rom
 .rodata        0x08033e24      0xba0 build/clock.c.o
                0x08033e24                swing
 .rodata        0x080349c4        0x8 build/stm32f4xx_hal_dma.c.o
 .rodata        0x080349cc       0x10 build/stm32f4xx_hal_rcc.c.o
                0x080349cc                APBAHBPrescTable
 *(.rodata*)
 .rodata.str1.4
                0x080349dc       0x43 build/usbd_midi.c.o
                                 0x44 (size before relaxing)
 *fill*         0x08034a1f        0x1 
 .rodata.str1.4
                0x08034a20       0x76 build/power_ctrl.c.o
                                 0x78 (size before relaxing)
 *fill*         0x08034a96        0x2 
 .rodata.str1.4
                0x08034a98      0x1d4 build/cvproc.c.o
 .rodata.str1.4
                0x08034c6c      0x5a5 build/gui.c.o
                                0x5ac (size before relaxing)
 *fill*         0x08035211        0x3 
 .rodata.str1.4
                0x08035214      0x314 build/panel_menu.c.o
                                0x338 (size before relaxing)
 .rodata.str1.4
                0x08035528       0x9c build/panel.c.o
 .rodata.str1.4
                0x080355c4       0x3c build/step_edit.c.o
                                 0x4c (size before relaxing)
 .rodata.str1.4
                0x08035600       0x40 build/song_edit.c.o
                                 0x44 (size before relaxing)
 .rodata.str1.4
                0x08035640       0xea build/config_store.c.o
                                 0xec (size before relaxing)
 *fill*         0x0803572a        0x2 
 .rodata.str1.4
                0x0803572c       0x64 build/midi_stream.c.o
 .rodata.str1.4
                0x08035790       0x43 build/midi_utils.c.o
                                 0x44 (size before relaxing)
 *fill*         0x080357d3        0x1 
 .rodata.str1.4
                0x080357d4       0x17 build/log.c.o
                                 0x18 (size before relaxing)
 *fill*         0x080357eb        0x1 
 .rodata.str1.4
                0x080357ec      0x1eb build/panel_utils.c.o
                                0x230 (size before relaxing)
 *fill*         0x080359d7        0x1 
 .rodata.str1.4
                0x080359d8       0x30 build/state_change.c.o
 .rodata.str1.4
                0x08035a08        0x4 build/spi_flash.c.o
 .rodata.str1.4
                0x08035a0c       0x84 build/iface_midi_router.c.o
 .rodata.str1.4
                0x08035a90       0x18 build/iface_panel.c.o
 .rodata.str1.4
                0x00000000        0x8 build/usbh_midi.c.o
 .rodata.str1.4
                0x08035aa8       0x6a build/sysex.c.o
                                 0x6c (size before relaxing)
 *fill*         0x08035b12        0x2 
 .rodata.str1.4
                0x08035b14       0x84 build/pattern.c.o
 .rodata.str1.4
                0x08035b98      0x181 build/arp.c.o
                                0x188 (size before relaxing)
 *fill*         0x08035d19        0x3 
 .rodata.str1.4
                0x08035d1c      0x340 build/seq_ctrl.c.o
 .rodata.str1.4
                0x0803605c        0x8 build/clock.c.o
 .rodata.str1.4
                0x08036064       0x33 build/clock_out.c.o
                                 0x34 (size before relaxing)
 *fill*         0x08036097        0x1 
 .rodata.str1.4
                0x08036098       0x53 build/scale.c.o
                                 0x54 (size before relaxing)
 *fill*         0x080360eb        0x1 
 .rodata.str1.4
                0x080360ec      0x134 build/seq_engine.c.o
 .rodata.str1.4
                0x08036220     0x1063 build/song.c.o
                               0x1064 (size before relaxing)
 *fill*         0x08037283        0x1 
 .rodata.str1.4
                0x08037284       0x51 build/outproc.c.o
                                 0x54 (size before relaxing)
 *fill*         0x080372d5        0x3 
 .rodata.str1.4
                0x080372d8      0x2a0 build/ext_flash.c.o
 .rodata.str1.4
                0x00000000        0x4 /home/andrew/bin/gcc-arm/bin/../lib/gcc/arm-none-eabi/4.9.3/../../../../arm-none-eabi/lib/armv7e-m/libc.a(lib_a-impure.o)
 .rodata._global_impure_ptr
                0x08037578        0x4 /home/andrew/bin/gcc-arm/bin/../lib/gcc/arm-none-eabi/4.9.3/../../../../arm-none-eabi/lib/armv7e-m/libc.a(lib_a-impure.o)
                0x08037578                _global_impure_ptr
 .rodata.zeroes.6916
                0x0803757c       0x10 /home/andrew/bin/gcc-arm/bin/../lib/gcc/arm-none-eabi/4.9.3/../../../../arm-none-eabi/lib/armv7e-m/libc.a(lib_a-svfprintf.o)
 .rodata.str1.4
                0x0803758c       0x3f /home/andrew/bin/gcc-arm/bin/../lib/gcc/arm-none-eabi/4.9.3/../../../../arm-none-eabi/lib/armv7e-m/libc.a(lib_a-svfprintf.o)
                                 0x44 (size before relaxing)
 *fill*         0x080375cb        0x1 
 .rodata.blanks.6915
                0x080375cc       0x10 /home/andrew/bin/gcc-arm/bin/../lib/gcc/arm-none-eabi/4.9.3/../../../../arm-none-eabi/lib/armv7e-m/libc.a(lib_a-svfprintf.o)
 .rodata.zeroes.6931
                0x080375dc       0x10 /home/andrew/bin/gcc-arm/bin/../lib/gcc/arm-none-eabi/4.9.3/../../../../arm-none-eabi/lib/armv7e-m/libc.a(lib_a-vfprintf.o)
 .rodata.str1.4
                0x00000000       0x44 /home/andrew/bin/gcc-arm/bin/../lib/gcc/arm-none-eabi/4.9.3/../../../../arm-none-eabi/lib/armv7e-m/libc.a(lib_a-vfprintf.o)
 .rodata.blanks.6930
                0x080375ec       0x10 /home/andrew/bin/gcc-arm/bin/../lib/gcc/arm-none-eabi/4.9.3/../../../../arm-none-eabi/lib/armv7e-m/libc.a(lib_a-vfprintf.o)
 .rodata.str1.4
                0x080375fc       0x10 /home/andrew/bin/gcc-arm/bin/../lib/gcc/arm-none-eabi/4.9.3/../../../../arm-none-eabi/lib/armv7e-m/libc.a(lib_a-dtoa.o)
                                 0x14 (size before relaxing)
 .rodata.str1.4
                0x0803760c        0x8 /home/andrew/bin/gcc-arm/bin/../lib/gcc/arm-none-eabi/4.9.3/../../../../arm-none-eabi/lib/armv7e-m/libc.a(lib_a-locale.o)
                                 0x14 (size before relaxing)
 .rodata.p05.5296
                0x08037614        0xc /home/andrew/bin/gcc-arm/bin/../lib/gcc/arm-none-eabi/4.9.3/../../../../arm-none-eabi/lib/armv7e-m/libc.a(lib_a-mprec.o)
 .rodata.__mprec_tens
                0x08037620       0xc8 /home/andrew/bin/gcc-arm/bin/../lib/gcc/arm-none-eabi/4.9.3/../../../../arm-none-eabi/lib/armv7e-m/libc.a(lib_a-mprec.o)
                0x08037620                __mprec_tens
 .rodata.__mprec_bigtens
                0x080376e8       0x28 /home/andrew/bin/gcc-arm/bin/../lib/gcc/arm-none-eabi/4.9.3/../../../../arm-none-eabi/lib/armv7e-m/libc.a(lib_a-mprec.o)
                0x080376e8                __mprec_bigtens
 .rodata.__mprec_tinytens
                0x08037710       0x28 /home/andrew/bin/gcc-arm/bin/../lib/gcc/arm-none-eabi/4.9.3/../../../../arm-none-eabi/lib/armv7e-m/libc.a(lib_a-mprec.o)
                0x08037710                __mprec_tinytens
 .rodata.str1.4
                0x00000000       0x30 /home/andrew/bin/gcc-arm/bin/../lib/gcc/arm-none-eabi/4.9.3/../../../../arm-none-eabi/lib/armv7e-m/libc.a(lib_a-svfiprintf.o)
 .rodata.blanks.6859
                0x08037738       0x10 /home/andrew/bin/gcc-arm/bin/../lib/gcc/arm-none-eabi/4.9.3/../../../../arm-none-eabi/lib/armv7e-m/libc.a(lib_a-svfiprintf.o)
 .rodata.zeroes.6860
                0x08037748       0x10 /home/andrew/bin/gcc-arm/bin/../lib/gcc/arm-none-eabi/4.9.3/../../../../arm-none-eabi/lib/armv7e-m/libc.a(lib_a-svfiprintf.o)
 .rodata.zeroes.6874
                0x08037758       0x10 /home/andrew/bin/gcc-arm/bin/../lib/gcc/arm-none-eabi/4.9.3/../../../../arm-none-eabi/lib/armv7e-m/libc.a(lib_a-vfiprintf.o)
 .rodata.str1.4
                0x00000000       0x30 /home/andrew/bin/gcc-arm/bin/../lib/gcc/arm-none-eabi/4.9.3/../../../../arm-none-eabi/lib/armv7e-m/libc.a(lib_a-vfiprintf.o)
 .rodata.blanks.6873
                0x08037768       0x10 /home/andrew/bin/gcc-arm/bin/../lib/gcc/arm-none-eabi/4.9.3/../../../../arm-none-eabi/lib/armv7e-m/libc.a(lib_a-vfiprintf.o)
                0x08037778                . = ALIGN (0x4)

.ARM.extab      0x08037778        0x0
 *(.ARM.extab* .gnu.linkonce.armextab.*)
 .ARM.extab     0x08037778        0x0 /home/andrew/bin/gcc-arm/bin/../lib/gcc/arm-none-eabi/4.9.3/../../../../arm-none-eabi/lib/armv7e-m/crt0.o
 .ARM.extab     0x08037778        0x0 /home/andrew/bin/gcc-arm/bin/../lib/gcc/arm-none-eabi/4.9.3/armv7e-m/libgcc.a(_divdi3.o)
 .ARM.extab     0x08037778        0x0 /home/andrew/bin/gcc-arm/bin/../lib/gcc/arm-none-eabi/4.9.3/armv7e-m/libgcc.a(_udivdi3.o)

.ARM            0x08037778        0x8
                0x08037778                __exidx_start = .
 *(.ARM.exidx*)
 .ARM.exidx     0x08037778        0x8 /home/andrew/bin/gcc-arm/bin/../lib/gcc/arm-none-eabi/4.9.3/../../../../arm-none-eabi/lib/armv7e-m/crt0.o
 .ARM.exidx     0x08037780        0x0 /home/andrew/bin/gcc-arm/bin/../lib/gcc/arm-none-eabi/4.9.3/armv7e-m/libgcc.a(_divdi3.o)
                                  0x8 (size before relaxing)
 .ARM.exidx     0x08037780        0x0 /home/andrew/bin/gcc-arm/bin/../lib/gcc/arm-none-eabi/4.9.3/armv7e-m/libgcc.a(_udivdi3.o)
                                  0x8 (size before relaxing)
                0x08037780                __exidx_end = .

.rel.dyn        0x08037780        0x0
 .rel.iplt      0x00000000        0x0 /home/andrew/bin/gcc-arm/bin/../lib/gcc/arm-none-eabi/4.9.3/armv7e-m/crtbegin.o

.preinit_array  0x08037780        0x0
                0x08037780                PROVIDE (__preinit_array_start, .)
 *(.preinit_array*)
                0x08037780                PROVIDE (__preinit_array_end, .)

.init_array     0x08037780        0x8
                0x08037780                PROVIDE (__init_array_start, .)
 *(SORT(.init_array.*))
 .init_array.00000
                0x08037780        0x4 /home/andrew/bin/gcc-arm/bin/../lib/gcc/arm-none-eabi/4.9.3/../../../../arm-none-eabi/lib/armv7e-m/libc.a(lib_a-__call_atexit.o)
 *(.init_array*)
 .init_array    0x08037784        0x4 /home/andrew/bin/gcc-arm/bin/../lib/gcc/arm-none-eabi/4.9.3/armv7e-m/crtbegin.o
                0x08037788                PROVIDE (__init_array_end, .)

.fini_array     0x08037788        0x4
                0x08037788                PROVIDE (__fini_array_start, .)
 *(SORT(.fini_array.*))
 *(.fini_array*)
 .fini_array    0x08037788        0x4 /home/andrew/bin/gcc-arm/bin/../lib/gcc/arm-none-eabi/4.9.3/armv7e-m/crtbegin.o
                0x0803778c                PROVIDE (__fini_array_end, .)
                0x0803778c                _sidata = LOADADDR (.data)

.data           0x10000000      0xb34 load address 0x0803778c
                0x10000000                . = ALIGN (0x4)
                0x10000000                _sdata = .
 *(.data)
 .data          0x10000000        0x0 /home/andrew/bin/gcc-arm/bin/../lib/gcc/arm-none-eabi/4.9.3/armv7e-m/crti.o
 .data          0x10000000        0x4 /home/andrew/bin/gcc-arm/bin/../lib/gcc/arm-none-eabi/4.9.3/armv7e-m/crtbegin.o
                0x10000000                __dso_handle
 .data          0x10000004        0x0 /home/andrew/bin/gcc-arm/bin/../lib/gcc/arm-none-eabi/4.9.3/../../../../arm-none-eabi/lib/armv7e-m/crt0.o
 .data          0x10000004        0x0 build/usbh_pipes.c.o
 .data          0x10000004        0x0 build/usbh_ctlreq.c.o
 .data          0x10000004        0x0 build/usbh_ioreq.c.o
 .data          0x10000004        0x0 build/usbh_core.c.o
 .data          0x10000004        0x0 build/usbd_ioreq.c.o
 .data          0x10000004        0x0 build/usbd_core.c.o
 .data          0x10000004        0x0 build/usbd_ctlreq.c.o
 .data          0x10000004      0x140 build/usbd_midi.c.o
                0x100000bc                USBD_DeviceDesc
                0x100000d0                USBD_LangIDDesc
                0x100000d4                USBD_StringSerial
                0x100000f0                USBD_MIDI_Desc
                0x1000010c                USBD_MIDI_ClassDriver
 .data          0x10000144        0x0 build/usbd_conf.c.o
 .data          0x10000144        0x4 build/power_ctrl.c.o
 .data          0x10000148        0x0 build/stm32f4xx_it.c.o
 .data          0x10000148        0x0 build/main.c.o
 .data          0x10000148        0x0 build/switch_filter.c.o
 .data          0x10000148        0x0 build/panel_if.c.o
 .data          0x10000148        0x0 build/analog_out.c.o
 .data          0x10000148        0x4 build/debug.c.o
 .data          0x1000014c        0x0 build/cvproc.c.o
 .data          0x1000014c        0x0 build/stm32f4xx_hal_msp.c.o
 .data          0x1000014c        0x8 build/gfx.c.o
                0x1000014c                GFX_FONT_WIDTH
                0x10000150                GFX_FONT_HEIGHT
 .data          0x10000154        0x0 build/ioctl.c.o
 .data          0x10000154        0x0 build/lcd_fsmc_if.c.o
 .data          0x10000154        0x0 build/ILI948x_drv.c.o
 .data          0x10000154        0x0 build/font_sinclair_8x8.c.o
 .data          0x10000154        0x0 build/font_system_8x12.c.o
 .data          0x10000154       0xa8 build/gui.c.o
                0x10000154                GUI_GRID_TRACK_COLOR_ACTIVE
                0x1000016c                GUI_GRID_TRACK_COLOR_MUTED
                0x1000019c                GUI_GRID_TRACK_COLOR_OFF
                0x100001cc                GUI_GRID_TRACK_COLOR_NORMAL
 .data          0x100001fc        0x0 build/panel_menu.c.o
 .data          0x100001fc        0x4 build/panel.c.o
 .data          0x10000200        0x0 build/step_edit.c.o
 .data          0x10000200        0x0 build/song_edit.c.o
 .data          0x10000200        0x0 build/config_store.c.o
 .data          0x10000200        0x0 build/midi_stream.c.o
 .data          0x10000200        0x0 build/midi_utils.c.o
 .data          0x10000200        0x0 build/log.c.o
 .data          0x10000200        0x0 build/time_utils.c.o
 .data          0x10000200        0x0 build/panel_utils.c.o
 .data          0x10000200        0x0 build/state_change.c.o
 .data          0x10000200        0x0 build/seq_utils.c.o
 .data          0x10000200       0x14 build/system_stm32f4xx.c.o
                0x10000200                AHBPrescTable
                0x10000210                SystemCoreClock
 .data          0x10000214        0x0 build/startup_stm32f407xx.s.o
 .data          0x10000214        0x0 build/lcd_drv.c.o
 .data          0x10000214        0x0 build/spi_flash.c.o
 .data          0x10000214        0x0 build/iface_midi_router.c.o
 .data          0x10000214        0x0 build/iface_panel.c.o
 .data          0x10000214       0x20 build/usbh_midi.c.o
                0x10000214                USBH_MIDI_ClassDriver
 .data          0x10000234        0x0 build/usbh_conf.c.o
 .data          0x10000234        0x0 build/delay.c.o
 .data          0x10000234        0x0 build/metronome.c.o
 .data          0x10000234        0x0 build/sysex.c.o
 .data          0x10000234        0x0 build/midi_ctrl.c.o
 .data          0x10000234        0x0 build/pattern.c.o
 .data          0x10000234        0x0 build/arp.c.o
 .data          0x10000234        0x0 build/seq_ctrl.c.o
 .data          0x10000234        0x0 build/arp_progs.c.o
 .data          0x10000234        0x0 build/clock.c.o
 .data          0x10000234        0x0 build/clock_out.c.o
 .data          0x10000234       0x38 build/scale.c.o
                0x10000234                scale_major
                0x1000023c                scale_nat_minor
                0x10000244                scale_har_minor
                0x1000024c                scale_dorian
                0x10000254                scale_whole
                0x1000025c                scale_pent
                0x10000264                scale_dim
 .data          0x1000026c        0x0 build/seq_engine.c.o
 .data          0x1000026c        0x8 build/song.c.o
                0x1000026c                song_reset_scale
 .data          0x10000274        0x0 build/outproc.c.o
 .data          0x10000274        0x0 build/spi_callbacks.c.o
 .data          0x10000274        0x0 build/ext_flash.c.o
 .data          0x10000274        0x0 build/din_midi.c.o
 .data          0x10000274        0x0 build/stm32f4xx_hal_dma_ex.c.o
 .data          0x10000274        0x0 build/stm32f4xx_hal_sai.c.o
 .data          0x10000274        0x0 build/stm32f4xx_hal_timebase_tim_template.c.o
 .data          0x10000274        0x0 build/stm32f4xx_hal_fmpi2c.c.o
 .data          0x10000274        0x0 build/stm32f4xx_hal_hcd.c.o
 .data          0x10000274        0x0 build/stm32f4xx_hal_nor.c.o
 .data          0x10000274        0x0 build/stm32f4xx_hal_smartcard.c.o
 .data          0x10000274        0x0 build/stm32f4xx_hal_hash_ex.c.o
 .data          0x10000274        0x0 build/stm32f4xx_hal_adc_ex.c.o
 .data          0x10000274        0x0 build/stm32f4xx_hal_spi.c.o
 .data          0x10000274        0x0 build/stm32f4xx_hal_tim_ex.c.o
 .data          0x10000274        0x0 build/stm32f4xx_hal_ltdc.c.o
 .data          0x10000274        0x0 build/stm32f4xx_hal_qspi.c.o
 .data          0x10000274        0x0 build/stm32f4xx_hal_nand.c.o
 .data          0x10000274        0x0 build/stm32f4xx_hal_tim.c.o
 .data          0x10000274        0x0 build/stm32f4xx_hal_dsi.c.o
 .data          0x10000274        0x0 build/stm32f4xx_hal_cryp_ex.c.o
 .data          0x10000274        0x0 build/stm32f4xx_ll_fmc.c.o
 .data          0x10000274        0x0 build/stm32f4xx_hal_pcd.c.o
 .data          0x10000274        0x0 build/stm32f4xx_hal_gpio.c.o
 .data          0x10000274        0x0 build/stm32f4xx_hal_pcd_ex.c.o
 .data          0x10000274        0x0 build/stm32f4xx_hal_pwr.c.o
 .data          0x10000274        0x0 build/stm32f4xx_hal_dac.c.o
 .data          0x10000274        0x0 build/stm32f4xx_hal_i2c_ex.c.o
 .data          0x10000274        0x0 build/stm32f4xx_hal_can.c.o
 .data          0x10000274        0x0 build/stm32f4xx_hal_rng.c.o
 .data          0x10000274        0x0 build/stm32f4xx_hal_uart.c.o
 .data          0x10000274        0x0 build/stm32f4xx_hal_fmpi2c_ex.c.o
 .data          0x10000274        0x0 build/stm32f4xx_hal_flash_ex.c.o
 .data          0x10000274        0x0 build/stm32f4xx_hal_ltdc_ex.c.o
 .data          0x10000274        0x0 build/stm32f4xx_hal_sram.c.o
 .data          0x10000274        0x0 build/stm32f4xx_hal_sd.c.o
 .data          0x10000274        0x0 build/stm32f4xx_hal_pccard.c.o
 .data          0x10000274        0x0 build/stm32f4xx_hal_hash.c.o
 .data          0x10000274        0x0 build/stm32f4xx_hal_dcmi_ex.c.o
 .data          0x10000274        0x0 build/stm32f4xx_ll_sdmmc.c.o
 .data          0x10000274        0x0 build/stm32f4xx_hal.c.o
 .data          0x10000274        0x0 build/stm32f4xx_hal_i2s.c.o
 .data          0x10000274        0x0 build/stm32f4xx_hal_wwdg.c.o
 .data          0x10000274        0x0 build/stm32f4xx_hal_iwdg.c.o
 .data          0x10000274        0x0 build/stm32f4xx_hal_pwr_ex.c.o
 .data          0x10000274        0x0 build/stm32f4xx_hal_eth.c.o
 .data          0x10000274        0x0 build/stm32f4xx_hal_dma2d.c.o
 .data          0x10000274        0x0 build/stm32f4xx_hal_crc.c.o
 .data          0x10000274        0x0 build/stm32f4xx_hal_spdifrx.c.o
 .data          0x10000274        0x0 build/stm32f4xx_hal_rtc_ex.c.o
 .data          0x10000274        0x0 build/stm32f4xx_hal_cec.c.o
 .data          0x10000274        0x0 build/stm32f4xx_hal_dcmi.c.o
 .data          0x10000274        0x0 build/stm32f4xx_hal_lptim.c.o
 .data          0x10000274        0x0 build/stm32f4xx_hal_irda.c.o
 .data          0x10000274        0x0 build/stm32f4xx_ll_fsmc.c.o
 .data          0x10000274        0x0 build/stm32f4xx_hal_i2s_ex.c.o
 .data          0x10000274        0x0 build/stm32f4xx_ll_usb.c.o
 .data          0x10000274        0x0 build/stm32f4xx_hal_sdram.c.o
 .data          0x10000274        0x0 build/stm32f4xx_hal_rcc_ex.c.o
 .data          0x10000274        0x0 build/stm32f4xx_hal_sai_ex.c.o
 .data          0x10000274        0x0 build/stm32f4xx_hal_dma.c.o
 .data          0x10000274        0x0 build/stm32f4xx_hal_rcc.c.o
 .data          0x10000274        0x0 build/stm32f4xx_hal_cortex.c.o
 .data          0x10000274        0x0 build/stm32f4xx_hal_i2c.c.o
 .data          0x10000274        0x0 build/stm32f4xx_hal_rtc.c.o
 .data          0x10000274        0x0 build/stm32f4xx_hal_cryp.c.o
 .data          0x10000274        0x0 build/stm32f4xx_hal_dac_ex.c.o
 .data          0x10000274        0x0 build/stm32f4xx_hal_flash.c.o
 .data          0x10000274        0x0 build/stm32f4xx_hal_adc.c.o
 .data          0x10000274        0x0 build/stm32f4xx_hal_flash_ramfunc.c.o
 .data          0x10000274        0x0 build/stm32f4xx_hal_usart.c.o
 .data          0x10000274        0x0 /home/andrew/bin/gcc-arm/bin/../lib/gcc/arm-none-eabi/4.9.3/armv7e-m/libgcc.a(_arm_addsubdf3.o)
 .data          0x10000274        0x0 /home/andrew/bin/gcc-arm/bin/../lib/gcc/arm-none-eabi/4.9.3/armv7e-m/libgcc.a(_arm_muldivdf3.o)
 .data          0x10000274        0x0 /home/andrew/bin/gcc-arm/bin/../lib/gcc/arm-none-eabi/4.9.3/armv7e-m/libgcc.a(_arm_cmpdf2.o)
 .data          0x10000274        0x0 /home/andrew/bin/gcc-arm/bin/../lib/gcc/arm-none-eabi/4.9.3/armv7e-m/libgcc.a(_arm_truncdfsf2.o)
 .data          0x10000274        0x0 /home/andrew/bin/gcc-arm/bin/../lib/gcc/arm-none-eabi/4.9.3/armv7e-m/libgcc.a(_arm_addsubsf3.o)
 .data          0x10000274        0x0 /home/andrew/bin/gcc-arm/bin/../lib/gcc/arm-none-eabi/4.9.3/armv7e-m/libgcc.a(_arm_muldivsf3.o)
 .data          0x10000274        0x0 /home/andrew/bin/gcc-arm/bin/../lib/gcc/arm-none-eabi/4.9.3/armv7e-m/libgcc.a(_arm_cmpsf2.o)
 .data          0x10000274        0x0 /home/andrew/bin/gcc-arm/bin/../lib/gcc/arm-none-eabi/4.9.3/armv7e-m/libgcc.a(_arm_fixsfsi.o)
 .data          0x10000274        0x0 /home/andrew/bin/gcc-arm/bin/../lib/gcc/arm-none-eabi/4.9.3/armv7e-m/libgcc.a(_fixunsdfdi.o)
 .data          0x10000274        0x0 /home/andrew/bin/gcc-arm/bin/../lib/gcc/arm-none-eabi/4.9.3/armv7e-m/libgcc.a(_arm_fixunsdfsi.o)
 .data          0x10000274        0x0 /home/andrew/bin/gcc-arm/bin/../lib/gcc/arm-none-eabi/4.9.3/../../../../arm-none-eabi/lib/armv7e-m/libc.a(lib_a-exit.o)
 .data          0x10000274        0x0 /home/andrew/bin/gcc-arm/bin/../lib/gcc/arm-none-eabi/4.9.3/../../../../arm-none-eabi/lib/armv7e-m/libc.a(lib_a-impure.o)
 .data          0x10000274        0x0 /home/andrew/bin/gcc-arm/bin/../lib/gcc/arm-none-eabi/4.9.3/../../../../arm-none-eabi/lib/armv7e-m/libc.a(lib_a-init.o)
 .data          0x10000274        0x0 /home/andrew/bin/gcc-arm/bin/../lib/gcc/arm-none-eabi/4.9.3/../../../../arm-none-eabi/lib/armv7e-m/libc.a(lib_a-malloc.o)
 .data          0x10000274        0x0 /home/andrew/bin/gcc-arm/bin/../lib/gcc/arm-none-eabi/4.9.3/../../../../arm-none-eabi/lib/armv7e-m/libc.a(lib_a-mallocr.o)
 .data          0x10000274        0x0 /home/andrew/bin/gcc-arm/bin/../lib/gcc/arm-none-eabi/4.9.3/../../../../arm-none-eabi/lib/armv7e-m/libc.a(lib_a-memcpy.o)
 .data          0x10000274        0x0 /home/andrew/bin/gcc-arm/bin/../lib/gcc/arm-none-eabi/4.9.3/../../../../arm-none-eabi/lib/armv7e-m/libc.a(lib_a-memset.o)
 .data          0x10000274        0x0 /home/andrew/bin/gcc-arm/bin/../lib/gcc/arm-none-eabi/4.9.3/../../../../arm-none-eabi/lib/armv7e-m/libc.a(lib_a-mlock.o)
 .data          0x10000274        0x0 /home/andrew/bin/gcc-arm/bin/../lib/gcc/arm-none-eabi/4.9.3/../../../../arm-none-eabi/lib/armv7e-m/libc.a(lib_a-printf.o)
 .data          0x10000274        0x0 /home/andrew/bin/gcc-arm/bin/../lib/gcc/arm-none-eabi/4.9.3/../../../../arm-none-eabi/lib/armv7e-m/libc.a(lib_a-rand.o)
 .data          0x10000274        0x0 /home/andrew/bin/gcc-arm/bin/../lib/gcc/arm-none-eabi/4.9.3/../../../../arm-none-eabi/lib/armv7e-m/libc.a(lib_a-sbrkr.o)
 .data          0x10000274        0x0 /home/andrew/bin/gcc-arm/bin/../lib/gcc/arm-none-eabi/4.9.3/../../../../arm-none-eabi/lib/armv7e-m/libc.a(lib_a-sprintf.o)
 .data          0x10000274        0x0 /home/andrew/bin/gcc-arm/bin/../lib/gcc/arm-none-eabi/4.9.3/../../../../arm-none-eabi/lib/armv7e-m/libc.a(lib_a-strcmp.o)
 .data          0x10000274        0x0 /home/andrew/bin/gcc-arm/bin/../lib/gcc/arm-none-eabi/4.9.3/../../../../arm-none-eabi/lib/armv7e-m/libc.a(lib_a-strcpy.o)
 .data          0x10000274        0x0 /home/andrew/bin/gcc-arm/bin/../lib/gcc/arm-none-eabi/4.9.3/../../../../arm-none-eabi/lib/armv7e-m/libc.a(lib_a-strlen.o)
 .data          0x10000274        0x0 /home/andrew/bin/gcc-arm/bin/../lib/gcc/arm-none-eabi/4.9.3/../../../../arm-none-eabi/lib/armv7e-m/libc.a(lib_a-svfprintf.o)
 .data          0x10000274        0x0 /home/andrew/bin/gcc-arm/bin/../lib/gcc/arm-none-eabi/4.9.3/../../../../arm-none-eabi/lib/armv7e-m/libc.a(lib_a-vfprintf.o)
 .data          0x10000274        0x0 /home/andrew/bin/gcc-arm/bin/../lib/gcc/arm-none-eabi/4.9.3/../../../../arm-none-eabi/lib/armv7e-m/libc.a(lib_a-vsprintf.o)
 .data          0x10000274        0x0 /home/andrew/bin/gcc-arm/bin/../lib/gcc/arm-none-eabi/4.9.3/../../../../arm-none-eabi/lib/armv7e-m/libc.a(lib_a-wsetup.o)
 .data          0x10000274        0x0 /home/andrew/bin/gcc-arm/bin/../lib/gcc/arm-none-eabi/4.9.3/../../../../arm-none-eabi/lib/armv7e-m/libc.a(lib_a-__call_atexit.o)
 .data          0x10000274        0x0 /home/andrew/bin/gcc-arm/bin/../lib/gcc/arm-none-eabi/4.9.3/../../../../arm-none-eabi/lib/armv7e-m/libc.a(lib_a-atexit.o)
 .data          0x10000274        0x0 /home/andrew/bin/gcc-arm/bin/../lib/gcc/arm-none-eabi/4.9.3/../../../../arm-none-eabi/lib/armv7e-m/libc.a(lib_a-dtoa.o)
 .data          0x10000274        0x0 /home/andrew/bin/gcc-arm/bin/../lib/gcc/arm-none-eabi/4.9.3/../../../../arm-none-eabi/lib/armv7e-m/libc.a(lib_a-fflush.o)
 .data          0x10000274        0x0 /home/andrew/bin/gcc-arm/bin/../lib/gcc/arm-none-eabi/4.9.3/../../../../arm-none-eabi/lib/armv7e-m/libc.a(lib_a-findfp.o)
 .data          0x10000274        0x0 /home/andrew/bin/gcc-arm/bin/../lib/gcc/arm-none-eabi/4.9.3/../../../../arm-none-eabi/lib/armv7e-m/libc.a(lib_a-fini.o)
 .data          0x10000274        0x0 /home/andrew/bin/gcc-arm/bin/../lib/gcc/arm-none-eabi/4.9.3/../../../../arm-none-eabi/lib/armv7e-m/libc.a(lib_a-freer.o)
 .data          0x10000274        0x0 /home/andrew/bin/gcc-arm/bin/../lib/gcc/arm-none-eabi/4.9.3/../../../../arm-none-eabi/lib/armv7e-m/libc.a(lib_a-fwalk.o)
 .data          0x10000274        0x0 /home/andrew/bin/gcc-arm/bin/../lib/gcc/arm-none-eabi/4.9.3/../../../../arm-none-eabi/lib/armv7e-m/libc.a(lib_a-locale.o)
 .data          0x10000274        0x0 /home/andrew/bin/gcc-arm/bin/../lib/gcc/arm-none-eabi/4.9.3/../../../../arm-none-eabi/lib/armv7e-m/libc.a(lib_a-makebuf.o)
 .data          0x10000274        0x0 /home/andrew/bin/gcc-arm/bin/../lib/gcc/arm-none-eabi/4.9.3/../../../../arm-none-eabi/lib/armv7e-m/libc.a(lib_a-memchr.o)
 .data          0x10000274        0x0 /home/andrew/bin/gcc-arm/bin/../lib/gcc/arm-none-eabi/4.9.3/../../../../arm-none-eabi/lib/armv7e-m/libc.a(lib_a-mprec.o)
 .data          0x10000274        0x0 /home/andrew/bin/gcc-arm/bin/../lib/gcc/arm-none-eabi/4.9.3/../../../../arm-none-eabi/lib/armv7e-m/libc.a(lib_a-reent.o)
 .data          0x10000274        0x0 /home/andrew/bin/gcc-arm/bin/../lib/gcc/arm-none-eabi/4.9.3/../../../../arm-none-eabi/lib/armv7e-m/libc.a(lib_a-s_fpclassify.o)
 .data          0x10000274        0x0 /home/andrew/bin/gcc-arm/bin/../lib/gcc/arm-none-eabi/4.9.3/../../../../arm-none-eabi/lib/armv7e-m/libc.a(lib_a-stdio.o)
 .data          0x10000274        0x0 /home/andrew/bin/gcc-arm/bin/../lib/gcc/arm-none-eabi/4.9.3/../../../../arm-none-eabi/lib/armv7e-m/libc.a(lib_a-svfiprintf.o)
 .data          0x10000274        0x0 /home/andrew/bin/gcc-arm/bin/../lib/gcc/arm-none-eabi/4.9.3/../../../../arm-none-eabi/lib/armv7e-m/libc.a(lib_a-vfiprintf.o)
 .data          0x10000274        0x0 /home/andrew/bin/gcc-arm/bin/../lib/gcc/arm-none-eabi/4.9.3/../../../../arm-none-eabi/lib/armv7e-m/libc.a(lib_a-writer.o)
 .data          0x10000274        0x0 /home/andrew/bin/gcc-arm/bin/../lib/gcc/arm-none-eabi/4.9.3/../../../../arm-none-eabi/lib/armv7e-m/libc.a(lib_a-__atexit.o)
 .data          0x10000274        0x0 /home/andrew/bin/gcc-arm/bin/../lib/gcc/arm-none-eabi/4.9.3/../../../../arm-none-eabi/lib/armv7e-m/libc.a(lib_a-callocr.o)
 .data          0x10000274        0x0 /home/andrew/bin/gcc-arm/bin/../lib/gcc/arm-none-eabi/4.9.3/../../../../arm-none-eabi/lib/armv7e-m/libc.a(lib_a-closer.o)
 .data          0x10000274        0x0 /home/andrew/bin/gcc-arm/bin/../lib/gcc/arm-none-eabi/4.9.3/../../../../arm-none-eabi/lib/armv7e-m/libc.a(lib_a-fclose.o)
 .data          0x10000274        0x0 /home/andrew/bin/gcc-arm/bin/../lib/gcc/arm-none-eabi/4.9.3/../../../../arm-none-eabi/lib/armv7e-m/libc.a(lib_a-fputwc.o)
 .data          0x10000274        0x0 /home/andrew/bin/gcc-arm/bin/../lib/gcc/arm-none-eabi/4.9.3/../../../../arm-none-eabi/lib/armv7e-m/libc.a(lib_a-fstatr.o)
 .data          0x10000274        0x0 /home/andrew/bin/gcc-arm/bin/../lib/gcc/arm-none-eabi/4.9.3/../../../../arm-none-eabi/lib/armv7e-m/libc.a(lib_a-fvwrite.o)
 .data          0x10000274        0x0 /home/andrew/bin/gcc-arm/bin/../lib/gcc/arm-none-eabi/4.9.3/../../../../arm-none-eabi/lib/armv7e-m/libc.a(lib_a-isattyr.o)
 .data          0x10000274        0x0 /home/andrew/bin/gcc-arm/bin/../lib/gcc/arm-none-eabi/4.9.3/../../../../arm-none-eabi/lib/armv7e-m/libc.a(lib_a-lseekr.o)
 .data          0x10000274        0x0 /home/andrew/bin/gcc-arm/bin/../lib/gcc/arm-none-eabi/4.9.3/../../../../arm-none-eabi/lib/armv7e-m/libc.a(lib_a-memmove.o)
 .data          0x10000274        0x0 /home/andrew/bin/gcc-arm/bin/../lib/gcc/arm-none-eabi/4.9.3/../../../../arm-none-eabi/lib/armv7e-m/libc.a(lib_a-readr.o)
 .data          0x10000274        0x0 /home/andrew/bin/gcc-arm/bin/../lib/gcc/arm-none-eabi/4.9.3/../../../../arm-none-eabi/lib/armv7e-m/libc.a(lib_a-reallocr.o)
 .data          0x10000274        0x0 /home/andrew/bin/gcc-arm/bin/../lib/gcc/arm-none-eabi/4.9.3/../../../../arm-none-eabi/lib/armv7e-m/libc.a(lib_a-wbuf.o)
 .data          0x10000274        0x0 /home/andrew/bin/gcc-arm/bin/../lib/gcc/arm-none-eabi/4.9.3/../../../../arm-none-eabi/lib/armv7e-m/libc.a(lib_a-wcrtomb.o)
 .data          0x10000274        0x0 /home/andrew/bin/gcc-arm/bin/../lib/gcc/arm-none-eabi/4.9.3/../../../../arm-none-eabi/lib/armv7e-m/libc.a(lib_a-wctomb_r.o)
 .data          0x10000274        0x0 /home/andrew/bin/gcc-arm/bin/../lib/gcc/arm-none-eabi/4.9.3/armv7e-m/libgcc.a(_arm_fixdfsi.o)
 .data          0x10000274        0x0 /home/andrew/bin/gcc-arm/bin/../lib/gcc/arm-none-eabi/4.9.3/armv7e-m/libgcc.a(_aeabi_uldivmod.o)
 .data          0x10000274        0x0 /home/andrew/bin/gcc-arm/bin/../lib/gcc/arm-none-eabi/4.9.3/armv7e-m/libgcc.a(bpabi.o)
 .data          0x10000274        0x0 /home/andrew/bin/gcc-arm/bin/../lib/gcc/arm-none-eabi/4.9.3/armv7e-m/libgcc.a(_dvmd_tls.o)
 .data          0x10000274        0x0 /home/andrew/bin/gcc-arm/bin/../lib/gcc/arm-none-eabi/4.9.3/armv7e-m/libgcc.a(_divdi3.o)
 .data          0x10000274        0x0 /home/andrew/bin/gcc-arm/bin/../lib/gcc/arm-none-eabi/4.9.3/armv7e-m/libgcc.a(_udivdi3.o)
 .data          0x10000274        0x0 /home/andrew/bin/gcc-arm/bin/../lib/gcc/arm-none-eabi/4.9.3/../../../../arm-none-eabi/lib/armv7e-m/libnosys.a(close.o)
 .data          0x10000274        0x0 /home/andrew/bin/gcc-arm/bin/../lib/gcc/arm-none-eabi/4.9.3/../../../../arm-none-eabi/lib/armv7e-m/libnosys.a(fstat.o)
 .data          0x10000274        0x0 /home/andrew/bin/gcc-arm/bin/../lib/gcc/arm-none-eabi/4.9.3/../../../../arm-none-eabi/lib/armv7e-m/libnosys.a(isatty.o)
 .data          0x10000274        0x0 /home/andrew/bin/gcc-arm/bin/../lib/gcc/arm-none-eabi/4.9.3/../../../../arm-none-eabi/lib/armv7e-m/libnosys.a(lseek.o)
 .data          0x10000274        0x0 /home/andrew/bin/gcc-arm/bin/../lib/gcc/arm-none-eabi/4.9.3/../../../../arm-none-eabi/lib/armv7e-m/libnosys.a(read.o)
 .data          0x10000274        0x0 /home/andrew/bin/gcc-arm/bin/../lib/gcc/arm-none-eabi/4.9.3/../../../../arm-none-eabi/lib/armv7e-m/libnosys.a(sbrk.o)
 .data          0x10000274        0x0 /home/andrew/bin/gcc-arm/bin/../lib/gcc/arm-none-eabi/4.9.3/../../../../arm-none-eabi/lib/armv7e-m/libnosys.a(_exit.o)
 .data          0x10000274        0x0 /home/andrew/bin/gcc-arm/bin/../lib/gcc/arm-none-eabi/4.9.3/armv7e-m/crtend.o
 .data          0x10000274        0x0 /home/andrew/bin/gcc-arm/bin/../lib/gcc/arm-none-eabi/4.9.3/armv7e-m/crtn.o
 *(.data*)
 *fill*         0x10000274        0x4 
 .data.impure_data
                0x10000278      0x428 /home/andrew/bin/gcc-arm/bin/../lib/gcc/arm-none-eabi/4.9.3/../../../../arm-none-eabi/lib/armv7e-m/libc.a(lib_a-impure.o)
 .data._impure_ptr
                0x100006a0        0x4 /home/andrew/bin/gcc-arm/bin/../lib/gcc/arm-none-eabi/4.9.3/../../../../arm-none-eabi/lib/armv7e-m/libc.a(lib_a-impure.o)
                0x100006a0                _impure_ptr
 .data.__malloc_av_
                0x100006a4      0x408 /home/andrew/bin/gcc-arm/bin/../lib/gcc/arm-none-eabi/4.9.3/../../../../arm-none-eabi/lib/armv7e-m/libc.a(lib_a-mallocr.o)
                0x100006a4                __malloc_av_
 .data.__malloc_trim_threshold
                0x10000aac        0x4 /home/andrew/bin/gcc-arm/bin/../lib/gcc/arm-none-eabi/4.9.3/../../../../arm-none-eabi/lib/armv7e-m/libc.a(lib_a-mallocr.o)
                0x10000aac                __malloc_trim_threshold
 .data.__malloc_sbrk_base
                0x10000ab0        0x4 /home/andrew/bin/gcc-arm/bin/../lib/gcc/arm-none-eabi/4.9.3/../../../../arm-none-eabi/lib/armv7e-m/libc.a(lib_a-mallocr.o)
                0x10000ab0                __malloc_sbrk_base
 .data.lc_message_charset
                0x10000ab4       0x20 /home/andrew/bin/gcc-arm/bin/../lib/gcc/arm-none-eabi/4.9.3/../../../../arm-none-eabi/lib/armv7e-m/libc.a(lib_a-locale.o)
 .data.lconv    0x10000ad4       0x38 /home/andrew/bin/gcc-arm/bin/../lib/gcc/arm-none-eabi/4.9.3/../../../../arm-none-eabi/lib/armv7e-m/libc.a(lib_a-locale.o)
 .data.lc_ctype_charset
                0x10000b0c       0x20 /home/andrew/bin/gcc-arm/bin/../lib/gcc/arm-none-eabi/4.9.3/../../../../arm-none-eabi/lib/armv7e-m/libc.a(lib_a-locale.o)
 .data.__mb_cur_max
                0x10000b2c        0x4 /home/andrew/bin/gcc-arm/bin/../lib/gcc/arm-none-eabi/4.9.3/../../../../arm-none-eabi/lib/armv7e-m/libc.a(lib_a-locale.o)
                0x10000b2c                __mb_cur_max
 .data.__wctomb
                0x10000b30        0x4 /home/andrew/bin/gcc-arm/bin/../lib/gcc/arm-none-eabi/4.9.3/../../../../arm-none-eabi/lib/armv7e-m/libc.a(lib_a-wctomb_r.o)
                0x10000b30                __wctomb
                0x10000b34                . = ALIGN (0x4)
                0x10000b34                _edata = .
                0x0804177c                _siccmram = LOADADDR (.ccmram)

.jcr            0x10000b34        0x4 load address 0x080382c0
 .jcr           0x10000b34        0x0 /home/andrew/bin/gcc-arm/bin/../lib/gcc/arm-none-eabi/4.9.3/armv7e-m/crtbegin.o
 .jcr           0x10000b34        0x4 /home/andrew/bin/gcc-arm/bin/../lib/gcc/arm-none-eabi/4.9.3/armv7e-m/crtend.o

.igot.plt       0x10000b38        0x0 load address 0x080382c4
 .igot.plt      0x00000000        0x0 /home/andrew/bin/gcc-arm/bin/../lib/gcc/arm-none-eabi/4.9.3/armv7e-m/crtbegin.o

.ccm            0x10000b38     0x94b8 load address 0x080382c4
 .ccm           0x10000b38      0x804 build/lcd_fsmc_if.c.o
                0x10000b38                lcds
 .ccm           0x1000133c     0x12a8 build/gui.c.o
                0x1000133c                gstate
 .ccm           0x100025e4     0x120c build/config_store.c.o
                0x100025e4                cfgss
 .ccm           0x100037f0     0x6800 build/midi_stream.c.o
                0x100037f0                midi_stream_queue

.ccmram         0x10009ff0        0x0 load address 0x0804177c
                0x10009ff0                . = ALIGN (0x4)
                0x10009ff0                _sccmram = .
 *(.ccmram)
 *(.ccmram*)
                0x10009ff0                . = ALIGN (0x4)
                0x10009ff0                _eccmram = .
                0x10009ff0                . = ALIGN (0x4)

.bss            0x20000000     0xd894
                0x20000000                _sbss = .
                0x20000000                __bss_start__ = _sbss
 *(.bss)
 .bss           0x20000000        0x0 /home/andrew/bin/gcc-arm/bin/../lib/gcc/arm-none-eabi/4.9.3/armv7e-m/crti.o
 .bss           0x20000000       0x1c /home/andrew/bin/gcc-arm/bin/../lib/gcc/arm-none-eabi/4.9.3/armv7e-m/crtbegin.o
 .bss           0x2000001c        0x0 /home/andrew/bin/gcc-arm/bin/../lib/gcc/arm-none-eabi/4.9.3/../../../../arm-none-eabi/lib/armv7e-m/crt0.o
 .bss           0x2000001c        0x0 build/usbh_pipes.c.o
 .bss           0x2000001c        0x0 build/usbh_ctlreq.c.o
 .bss           0x2000001c        0x0 build/usbh_ioreq.c.o
 .bss           0x2000001c        0x0 build/usbh_core.c.o
 .bss           0x2000001c        0x0 build/usbd_ioreq.c.o
 .bss           0x2000001c        0x0 build/usbd_core.c.o
 .bss           0x2000001c        0x1 build/usbd_ctlreq.c.o
 .bss           0x2000001d        0x0 build/usbd_midi.c.o
 .bss           0x2000001d        0x0 build/usbd_conf.c.o
 .bss           0x2000001d        0x0 build/power_ctrl.c.o
 .bss           0x2000001d        0x0 build/stm32f4xx_it.c.o
 *fill*         0x2000001d        0x3 
 .bss           0x20000020        0x8 build/main.c.o
 .bss           0x20000028        0x0 build/switch_filter.c.o
 .bss           0x20000028        0x8 build/panel_if.c.o
 .bss           0x20000030        0xc build/analog_out.c.o
 .bss           0x2000003c       0xc4 build/debug.c.o
 .bss           0x20000100        0x0 build/cvproc.c.o
 .bss           0x20000100        0x0 build/stm32f4xx_hal_msp.c.o
 .bss           0x20000100        0x0 build/gfx.c.o
 .bss           0x20000100       0x5c build/ioctl.c.o
 .bss           0x2000015c        0x0 build/lcd_fsmc_if.c.o
 .bss           0x2000015c        0x0 build/ILI948x_drv.c.o
 .bss           0x2000015c        0x0 build/font_sinclair_8x8.c.o
 .bss           0x2000015c        0x0 build/font_system_8x12.c.o
 .bss           0x2000015c        0x0 build/gui.c.o
 .bss           0x2000015c        0x0 build/panel_menu.c.o
 .bss           0x2000015c       0x30 build/panel.c.o
 .bss           0x2000018c        0x0 build/step_edit.c.o
 .bss           0x2000018c        0x0 build/song_edit.c.o
 .bss           0x2000018c        0x4 build/config_store.c.o
 .bss           0x20000190       0x40 build/midi_stream.c.o
 .bss           0x200001d0        0x0 build/midi_utils.c.o
 .bss           0x200001d0        0x0 build/log.c.o
 .bss           0x200001d0        0x4 build/time_utils.c.o
                0x200001d0                time_utils_current_time
 .bss           0x200001d4        0x0 build/panel_utils.c.o
 .bss           0x200001d4        0x0 build/state_change.c.o
 .bss           0x200001d4        0x0 build/seq_utils.c.o
 .bss           0x200001d4        0x0 build/system_stm32f4xx.c.o
 .bss           0x200001d4        0x0 build/startup_stm32f407xx.s.o
 .bss           0x200001d4        0x0 build/lcd_drv.c.o
 .bss           0x200001d4       0xb0 build/spi_flash.c.o
 .bss           0x20000284        0x0 build/iface_midi_router.c.o
 .bss           0x20000284        0x0 build/iface_panel.c.o
 .bss           0x20000284        0x0 build/usbh_midi.c.o
 .bss           0x20000284        0x0 build/usbh_conf.c.o
 .bss           0x20000284        0x0 build/delay.c.o
 .bss           0x20000284        0x0 build/metronome.c.o
 .bss           0x20000284        0x0 build/sysex.c.o
 .bss           0x20000284        0x0 build/midi_ctrl.c.o
 .bss           0x20000284        0x0 build/pattern.c.o
 .bss           0x20000284        0x0 build/arp.c.o
 .bss           0x20000284        0x0 build/seq_ctrl.c.o
 .bss           0x20000284        0x0 build/arp_progs.c.o
 .bss           0x20000284        0x0 build/clock.c.o
 .bss           0x20000284        0x0 build/clock_out.c.o
 .bss           0x20000284        0x0 build/scale.c.o
 .bss           0x20000284        0x4 build/seq_engine.c.o
 .bss           0x20000288        0x0 build/song.c.o
 .bss           0x20000288        0x0 build/outproc.c.o
 .bss           0x20000288        0x0 build/spi_callbacks.c.o
 .bss           0x20000288        0x0 build/ext_flash.c.o
 .bss           0x20000288       0x14 build/din_midi.c.o
 .bss           0x2000029c        0x0 build/stm32f4xx_hal_dma_ex.c.o
 .bss           0x2000029c        0x0 build/stm32f4xx_hal_sai.c.o
 .bss           0x2000029c        0x0 build/stm32f4xx_hal_timebase_tim_template.c.o
 .bss           0x2000029c        0x0 build/stm32f4xx_hal_fmpi2c.c.o
 .bss           0x2000029c        0x0 build/stm32f4xx_hal_hcd.c.o
 .bss           0x2000029c        0x0 build/stm32f4xx_hal_nor.c.o
 .bss           0x2000029c        0x0 build/stm32f4xx_hal_smartcard.c.o
 .bss           0x2000029c        0x0 build/stm32f4xx_hal_hash_ex.c.o
 .bss           0x2000029c        0x0 build/stm32f4xx_hal_adc_ex.c.o
 .bss           0x2000029c        0x0 build/stm32f4xx_hal_spi.c.o
 .bss           0x2000029c        0x0 build/stm32f4xx_hal_tim_ex.c.o
 .bss           0x2000029c        0x0 build/stm32f4xx_hal_ltdc.c.o
 .bss           0x2000029c        0x0 build/stm32f4xx_hal_qspi.c.o
 .bss           0x2000029c        0x0 build/stm32f4xx_hal_nand.c.o
 .bss           0x2000029c        0x0 build/stm32f4xx_hal_tim.c.o
 .bss           0x2000029c        0x0 build/stm32f4xx_hal_dsi.c.o
 .bss           0x2000029c        0x0 build/stm32f4xx_hal_cryp_ex.c.o
 .bss           0x2000029c        0x0 build/stm32f4xx_ll_fmc.c.o
 .bss           0x2000029c        0x0 build/stm32f4xx_hal_pcd.c.o
 .bss           0x2000029c        0x0 build/stm32f4xx_hal_gpio.c.o
 .bss           0x2000029c        0x0 build/stm32f4xx_hal_pcd_ex.c.o
 .bss           0x2000029c        0x0 build/stm32f4xx_hal_pwr.c.o
 .bss           0x2000029c        0x0 build/stm32f4xx_hal_dac.c.o
 .bss           0x2000029c        0x0 build/stm32f4xx_hal_i2c_ex.c.o
 .bss           0x2000029c        0x0 build/stm32f4xx_hal_can.c.o
 .bss           0x2000029c        0x0 build/stm32f4xx_hal_rng.c.o
 .bss           0x2000029c        0x0 build/stm32f4xx_hal_uart.c.o
 .bss           0x2000029c        0x0 build/stm32f4xx_hal_fmpi2c_ex.c.o
 .bss           0x2000029c        0x0 build/stm32f4xx_hal_flash_ex.c.o
 .bss           0x2000029c        0x0 build/stm32f4xx_hal_ltdc_ex.c.o
 .bss           0x2000029c        0x0 build/stm32f4xx_hal_sram.c.o
 .bss           0x2000029c        0x0 build/stm32f4xx_hal_sd.c.o
 .bss           0x2000029c        0x0 build/stm32f4xx_hal_pccard.c.o
 .bss           0x2000029c        0x0 build/stm32f4xx_hal_hash.c.o
 .bss           0x2000029c        0x0 build/stm32f4xx_hal_dcmi_ex.c.o
 .bss           0x2000029c        0x0 build/stm32f4xx_ll_sdmmc.c.o
 .bss           0x2000029c        0x0 build/stm32f4xx_hal.c.o
 .bss           0x2000029c        0x0 build/stm32f4xx_hal_i2s.c.o
 .bss           0x2000029c        0x0 build/stm32f4xx_hal_wwdg.c.o
 .bss           0x2000029c        0x0 build/stm32f4xx_hal_iwdg.c.o
 .bss           0x2000029c        0x0 build/stm32f4xx_hal_pwr_ex.c.o
 .bss           0x2000029c        0x0 build/stm32f4xx_hal_eth.c.o
 .bss           0x2000029c        0x0 build/stm32f4xx_hal_dma2d.c.o
 .bss           0x2000029c        0x0 build/stm32f4xx_hal_crc.c.o
 .bss           0x2000029c        0x0 build/stm32f4xx_hal_spdifrx.c.o
 .bss           0x2000029c        0x0 build/stm32f4xx_hal_rtc_ex.c.o
 .bss           0x2000029c        0x0 build/stm32f4xx_hal_cec.c.o
 .bss           0x2000029c        0x0 build/stm32f4xx_hal_dcmi.c.o
 .bss           0x2000029c        0x0 build/stm32f4xx_hal_lptim.c.o
 .bss           0x2000029c        0x0 build/stm32f4xx_hal_irda.c.o
 .bss           0x2000029c        0x0 build/stm32f4xx_ll_fsmc.c.o
 .bss           0x2000029c        0x0 build/stm32f4xx_hal_i2s_ex.c.o
 .bss           0x2000029c        0x4 build/stm32f4xx_ll_usb.c.o
 .bss           0x200002a0        0x0 build/stm32f4xx_hal_sdram.c.o
 .bss           0x200002a0        0x0 build/stm32f4xx_hal_rcc_ex.c.o
 .bss           0x200002a0        0x0 build/stm32f4xx_hal_sai_ex.c.o
 .bss           0x200002a0        0x0 build/stm32f4xx_hal_dma.c.o
 .bss           0x200002a0        0x0 build/stm32f4xx_hal_rcc.c.o
 .bss           0x200002a0        0x0 build/stm32f4xx_hal_cortex.c.o
 .bss           0x200002a0        0x0 build/stm32f4xx_hal_i2c.c.o
 .bss           0x200002a0        0x0 build/stm32f4xx_hal_rtc.c.o
 .bss           0x200002a0        0x0 build/stm32f4xx_hal_cryp.c.o
 .bss           0x200002a0        0x0 build/stm32f4xx_hal_dac_ex.c.o
 .bss           0x200002a0        0x0 build/stm32f4xx_hal_flash.c.o
 .bss           0x200002a0        0x0 build/stm32f4xx_hal_adc.c.o
 .bss           0x200002a0        0x0 build/stm32f4xx_hal_flash_ramfunc.c.o
 .bss           0x200002a0        0x0 build/stm32f4xx_hal_usart.c.o
 .bss           0x200002a0        0x0 /home/andrew/bin/gcc-arm/bin/../lib/gcc/arm-none-eabi/4.9.3/armv7e-m/libgcc.a(_arm_addsubdf3.o)
 .bss           0x200002a0        0x0 /home/andrew/bin/gcc-arm/bin/../lib/gcc/arm-none-eabi/4.9.3/armv7e-m/libgcc.a(_arm_muldivdf3.o)
 .bss           0x200002a0        0x0 /home/andrew/bin/gcc-arm/bin/../lib/gcc/arm-none-eabi/4.9.3/armv7e-m/libgcc.a(_arm_cmpdf2.o)
 .bss           0x200002a0        0x0 /home/andrew/bin/gcc-arm/bin/../lib/gcc/arm-none-eabi/4.9.3/armv7e-m/libgcc.a(_arm_truncdfsf2.o)
 .bss           0x200002a0        0x0 /home/andrew/bin/gcc-arm/bin/../lib/gcc/arm-none-eabi/4.9.3/armv7e-m/libgcc.a(_arm_addsubsf3.o)
 .bss           0x200002a0        0x0 /home/andrew/bin/gcc-arm/bin/../lib/gcc/arm-none-eabi/4.9.3/armv7e-m/libgcc.a(_arm_muldivsf3.o)
 .bss           0x200002a0        0x0 /home/andrew/bin/gcc-arm/bin/../lib/gcc/arm-none-eabi/4.9.3/armv7e-m/libgcc.a(_arm_cmpsf2.o)
 .bss           0x200002a0        0x0 /home/andrew/bin/gcc-arm/bin/../lib/gcc/arm-none-eabi/4.9.3/armv7e-m/libgcc.a(_arm_fixsfsi.o)
 .bss           0x200002a0        0x0 /home/andrew/bin/gcc-arm/bin/../lib/gcc/arm-none-eabi/4.9.3/armv7e-m/libgcc.a(_fixunsdfdi.o)
 .bss           0x200002a0        0x0 /home/andrew/bin/gcc-arm/bin/../lib/gcc/arm-none-eabi/4.9.3/armv7e-m/libgcc.a(_arm_fixunsdfsi.o)
 .bss           0x200002a0        0x0 /home/andrew/bin/gcc-arm/bin/../lib/gcc/arm-none-eabi/4.9.3/../../../../arm-none-eabi/lib/armv7e-m/libc.a(lib_a-exit.o)
 .bss           0x200002a0        0x0 /home/andrew/bin/gcc-arm/bin/../lib/gcc/arm-none-eabi/4.9.3/../../../../arm-none-eabi/lib/armv7e-m/libc.a(lib_a-impure.o)
 .bss           0x200002a0        0x0 /home/andrew/bin/gcc-arm/bin/../lib/gcc/arm-none-eabi/4.9.3/../../../../arm-none-eabi/lib/armv7e-m/libc.a(lib_a-init.o)
 .bss           0x200002a0        0x0 /home/andrew/bin/gcc-arm/bin/../lib/gcc/arm-none-eabi/4.9.3/../../../../arm-none-eabi/lib/armv7e-m/libc.a(lib_a-malloc.o)
 .bss           0x200002a0        0x0 /home/andrew/bin/gcc-arm/bin/../lib/gcc/arm-none-eabi/4.9.3/../../../../arm-none-eabi/lib/armv7e-m/libc.a(lib_a-mallocr.o)
 .bss           0x200002a0        0x0 /home/andrew/bin/gcc-arm/bin/../lib/gcc/arm-none-eabi/4.9.3/../../../../arm-none-eabi/lib/armv7e-m/libc.a(lib_a-memcpy.o)
 .bss           0x200002a0        0x0 /home/andrew/bin/gcc-arm/bin/../lib/gcc/arm-none-eabi/4.9.3/../../../../arm-none-eabi/lib/armv7e-m/libc.a(lib_a-memset.o)
 .bss           0x200002a0        0x0 /home/andrew/bin/gcc-arm/bin/../lib/gcc/arm-none-eabi/4.9.3/../../../../arm-none-eabi/lib/armv7e-m/libc.a(lib_a-mlock.o)
 .bss           0x200002a0        0x0 /home/andrew/bin/gcc-arm/bin/../lib/gcc/arm-none-eabi/4.9.3/../../../../arm-none-eabi/lib/armv7e-m/libc.a(lib_a-printf.o)
 .bss           0x200002a0        0x0 /home/andrew/bin/gcc-arm/bin/../lib/gcc/arm-none-eabi/4.9.3/../../../../arm-none-eabi/lib/armv7e-m/libc.a(lib_a-rand.o)
 .bss           0x200002a0        0x0 /home/andrew/bin/gcc-arm/bin/../lib/gcc/arm-none-eabi/4.9.3/../../../../arm-none-eabi/lib/armv7e-m/libc.a(lib_a-sbrkr.o)
 .bss           0x200002a0        0x0 /home/andrew/bin/gcc-arm/bin/../lib/gcc/arm-none-eabi/4.9.3/../../../../arm-none-eabi/lib/armv7e-m/libc.a(lib_a-sprintf.o)
 .bss           0x200002a0        0x0 /home/andrew/bin/gcc-arm/bin/../lib/gcc/arm-none-eabi/4.9.3/../../../../arm-none-eabi/lib/armv7e-m/libc.a(lib_a-strcmp.o)
 .bss           0x200002a0        0x0 /home/andrew/bin/gcc-arm/bin/../lib/gcc/arm-none-eabi/4.9.3/../../../../arm-none-eabi/lib/armv7e-m/libc.a(lib_a-strcpy.o)
 .bss           0x200002a0        0x0 /home/andrew/bin/gcc-arm/bin/../lib/gcc/arm-none-eabi/4.9.3/../../../../arm-none-eabi/lib/armv7e-m/libc.a(lib_a-strlen.o)
 .bss           0x200002a0        0x0 /home/andrew/bin/gcc-arm/bin/../lib/gcc/arm-none-eabi/4.9.3/../../../../arm-none-eabi/lib/armv7e-m/libc.a(lib_a-svfprintf.o)
 .bss           0x200002a0        0x0 /home/andrew/bin/gcc-arm/bin/../lib/gcc/arm-none-eabi/4.9.3/../../../../arm-none-eabi/lib/armv7e-m/libc.a(lib_a-vfprintf.o)
 .bss           0x200002a0        0x0 /home/andrew/bin/gcc-arm/bin/../lib/gcc/arm-none-eabi/4.9.3/../../../../arm-none-eabi/lib/armv7e-m/libc.a(lib_a-vsprintf.o)
 .bss           0x200002a0        0x0 /home/andrew/bin/gcc-arm/bin/../lib/gcc/arm-none-eabi/4.9.3/../../../../arm-none-eabi/lib/armv7e-m/libc.a(lib_a-wsetup.o)
 .bss           0x200002a0        0x0 /home/andrew/bin/gcc-arm/bin/../lib/gcc/arm-none-eabi/4.9.3/../../../../arm-none-eabi/lib/armv7e-m/libc.a(lib_a-__call_atexit.o)
 .bss           0x200002a0        0x0 /home/andrew/bin/gcc-arm/bin/../lib/gcc/arm-none-eabi/4.9.3/../../../../arm-none-eabi/lib/armv7e-m/libc.a(lib_a-atexit.o)
 .bss           0x200002a0        0x0 /home/andrew/bin/gcc-arm/bin/../lib/gcc/arm-none-eabi/4.9.3/../../../../arm-none-eabi/lib/armv7e-m/libc.a(lib_a-dtoa.o)
 .bss           0x200002a0        0x0 /home/andrew/bin/gcc-arm/bin/../lib/gcc/arm-none-eabi/4.9.3/../../../../arm-none-eabi/lib/armv7e-m/libc.a(lib_a-fflush.o)
 .bss           0x200002a0        0x0 /home/andrew/bin/gcc-arm/bin/../lib/gcc/arm-none-eabi/4.9.3/../../../../arm-none-eabi/lib/armv7e-m/libc.a(lib_a-findfp.o)
 .bss           0x200002a0        0x0 /home/andrew/bin/gcc-arm/bin/../lib/gcc/arm-none-eabi/4.9.3/../../../../arm-none-eabi/lib/armv7e-m/libc.a(lib_a-fini.o)
 .bss           0x200002a0        0x0 /home/andrew/bin/gcc-arm/bin/../lib/gcc/arm-none-eabi/4.9.3/../../../../arm-none-eabi/lib/armv7e-m/libc.a(lib_a-freer.o)
 .bss           0x200002a0        0x0 /home/andrew/bin/gcc-arm/bin/../lib/gcc/arm-none-eabi/4.9.3/../../../../arm-none-eabi/lib/armv7e-m/libc.a(lib_a-fwalk.o)
 .bss           0x200002a0        0x0 /home/andrew/bin/gcc-arm/bin/../lib/gcc/arm-none-eabi/4.9.3/../../../../arm-none-eabi/lib/armv7e-m/libc.a(lib_a-locale.o)
 .bss           0x200002a0        0x0 /home/andrew/bin/gcc-arm/bin/../lib/gcc/arm-none-eabi/4.9.3/../../../../arm-none-eabi/lib/armv7e-m/libc.a(lib_a-makebuf.o)
 .bss           0x200002a0        0x0 /home/andrew/bin/gcc-arm/bin/../lib/gcc/arm-none-eabi/4.9.3/../../../../arm-none-eabi/lib/armv7e-m/libc.a(lib_a-memchr.o)
 .bss           0x200002a0        0x0 /home/andrew/bin/gcc-arm/bin/../lib/gcc/arm-none-eabi/4.9.3/../../../../arm-none-eabi/lib/armv7e-m/libc.a(lib_a-mprec.o)
 .bss           0x200002a0        0x0 /home/andrew/bin/gcc-arm/bin/../lib/gcc/arm-none-eabi/4.9.3/../../../../arm-none-eabi/lib/armv7e-m/libc.a(lib_a-reent.o)
 .bss           0x200002a0        0x0 /home/andrew/bin/gcc-arm/bin/../lib/gcc/arm-none-eabi/4.9.3/../../../../arm-none-eabi/lib/armv7e-m/libc.a(lib_a-s_fpclassify.o)
 .bss           0x200002a0        0x0 /home/andrew/bin/gcc-arm/bin/../lib/gcc/arm-none-eabi/4.9.3/../../../../arm-none-eabi/lib/armv7e-m/libc.a(lib_a-stdio.o)
 .bss           0x200002a0        0x0 /home/andrew/bin/gcc-arm/bin/../lib/gcc/arm-none-eabi/4.9.3/../../../../arm-none-eabi/lib/armv7e-m/libc.a(lib_a-svfiprintf.o)
 .bss           0x200002a0        0x0 /home/andrew/bin/gcc-arm/bin/../lib/gcc/arm-none-eabi/4.9.3/../../../../arm-none-eabi/lib/armv7e-m/libc.a(lib_a-vfiprintf.o)
 .bss           0x200002a0        0x0 /home/andrew/bin/gcc-arm/bin/../lib/gcc/arm-none-eabi/4.9.3/../../../../arm-none-eabi/lib/armv7e-m/libc.a(lib_a-writer.o)
 .bss           0x200002a0        0x0 /home/andrew/bin/gcc-arm/bin/../lib/gcc/arm-none-eabi/4.9.3/../../../../arm-none-eabi/lib/armv7e-m/libc.a(lib_a-__atexit.o)
 .bss           0x200002a0        0x0 /home/andrew/bin/gcc-arm/bin/../lib/gcc/arm-none-eabi/4.9.3/../../../../arm-none-eabi/lib/armv7e-m/libc.a(lib_a-callocr.o)
 .bss           0x200002a0        0x0 /home/andrew/bin/gcc-arm/bin/../lib/gcc/arm-none-eabi/4.9.3/../../../../arm-none-eabi/lib/armv7e-m/libc.a(lib_a-closer.o)
 .bss           0x200002a0        0x0 /home/andrew/bin/gcc-arm/bin/../lib/gcc/arm-none-eabi/4.9.3/../../../../arm-none-eabi/lib/armv7e-m/libc.a(lib_a-fclose.o)
 .bss           0x200002a0        0x0 /home/andrew/bin/gcc-arm/bin/../lib/gcc/arm-none-eabi/4.9.3/../../../../arm-none-eabi/lib/armv7e-m/libc.a(lib_a-fputwc.o)
 .bss           0x200002a0        0x0 /home/andrew/bin/gcc-arm/bin/../lib/gcc/arm-none-eabi/4.9.3/../../../../arm-none-eabi/lib/armv7e-m/libc.a(lib_a-fstatr.o)
 .bss           0x200002a0        0x0 /home/andrew/bin/gcc-arm/bin/../lib/gcc/arm-none-eabi/4.9.3/../../../../arm-none-eabi/lib/armv7e-m/libc.a(lib_a-fvwrite.o)
 .bss           0x200002a0        0x0 /home/andrew/bin/gcc-arm/bin/../lib/gcc/arm-none-eabi/4.9.3/../../../../arm-none-eabi/lib/armv7e-m/libc.a(lib_a-isattyr.o)
 .bss           0x200002a0        0x0 /home/andrew/bin/gcc-arm/bin/../lib/gcc/arm-none-eabi/4.9.3/../../../../arm-none-eabi/lib/armv7e-m/libc.a(lib_a-lseekr.o)
 .bss           0x200002a0        0x0 /home/andrew/bin/gcc-arm/bin/../lib/gcc/arm-none-eabi/4.9.3/../../../../arm-none-eabi/lib/armv7e-m/libc.a(lib_a-memmove.o)
 .bss           0x200002a0        0x0 /home/andrew/bin/gcc-arm/bin/../lib/gcc/arm-none-eabi/4.9.3/../../../../arm-none-eabi/lib/armv7e-m/libc.a(lib_a-readr.o)
 .bss           0x200002a0        0x0 /home/andrew/bin/gcc-arm/bin/../lib/gcc/arm-none-eabi/4.9.3/../../../../arm-none-eabi/lib/armv7e-m/libc.a(lib_a-reallocr.o)
 .bss           0x200002a0        0x0 /home/andrew/bin/gcc-arm/bin/../lib/gcc/arm-none-eabi/4.9.3/../../../../arm-none-eabi/lib/armv7e-m/libc.a(lib_a-wbuf.o)
 .bss           0x200002a0        0x0 /home/andrew/bin/gcc-arm/bin/../lib/gcc/arm-none-eabi/4.9.3/../../../../arm-none-eabi/lib/armv7e-m/libc.a(lib_a-wcrtomb.o)
 .bss           0x200002a0        0x0 /home/andrew/bin/gcc-arm/bin/../lib/gcc/arm-none-eabi/4.9.3/../../../../arm-none-eabi/lib/armv7e-m/libc.a(lib_a-wctomb_r.o)
 .bss           0x200002a0        0x0 /home/andrew/bin/gcc-arm/bin/../lib/gcc/arm-none-eabi/4.9.3/armv7e-m/libgcc.a(_arm_fixdfsi.o)
 .bss           0x200002a0        0x0 /home/andrew/bin/gcc-arm/bin/../lib/gcc/arm-none-eabi/4.9.3/armv7e-m/libgcc.a(_aeabi_uldivmod.o)
 .bss           0x200002a0        0x0 /home/andrew/bin/gcc-arm/bin/../lib/gcc/arm-none-eabi/4.9.3/armv7e-m/libgcc.a(bpabi.o)
 .bss           0x200002a0        0x0 /home/andrew/bin/gcc-arm/bin/../lib/gcc/arm-none-eabi/4.9.3/armv7e-m/libgcc.a(_dvmd_tls.o)
 .bss           0x200002a0        0x0 /home/andrew/bin/gcc-arm/bin/../lib/gcc/arm-none-eabi/4.9.3/armv7e-m/libgcc.a(_divdi3.o)
 .bss           0x200002a0        0x0 /home/andrew/bin/gcc-arm/bin/../lib/gcc/arm-none-eabi/4.9.3/armv7e-m/libgcc.a(_udivdi3.o)
 .bss           0x200002a0        0x0 /home/andrew/bin/gcc-arm/bin/../lib/gcc/arm-none-eabi/4.9.3/../../../../arm-none-eabi/lib/armv7e-m/libnosys.a(close.o)
 .bss           0x200002a0        0x0 /home/andrew/bin/gcc-arm/bin/../lib/gcc/arm-none-eabi/4.9.3/../../../../arm-none-eabi/lib/armv7e-m/libnosys.a(fstat.o)
 .bss           0x200002a0        0x0 /home/andrew/bin/gcc-arm/bin/../lib/gcc/arm-none-eabi/4.9.3/../../../../arm-none-eabi/lib/armv7e-m/libnosys.a(isatty.o)
 .bss           0x200002a0        0x0 /home/andrew/bin/gcc-arm/bin/../lib/gcc/arm-none-eabi/4.9.3/../../../../arm-none-eabi/lib/armv7e-m/libnosys.a(lseek.o)
 .bss           0x200002a0        0x0 /home/andrew/bin/gcc-arm/bin/../lib/gcc/arm-none-eabi/4.9.3/../../../../arm-none-eabi/lib/armv7e-m/libnosys.a(read.o)
 .bss           0x200002a0        0x0 /home/andrew/bin/gcc-arm/bin/../lib/gcc/arm-none-eabi/4.9.3/../../../../arm-none-eabi/lib/armv7e-m/libnosys.a(sbrk.o)
 .bss           0x200002a0        0x0 /home/andrew/bin/gcc-arm/bin/../lib/gcc/arm-none-eabi/4.9.3/../../../../arm-none-eabi/lib/armv7e-m/libnosys.a(_exit.o)
 .bss           0x200002a0        0x0 /home/andrew/bin/gcc-arm/bin/../lib/gcc/arm-none-eabi/4.9.3/armv7e-m/crtend.o
 .bss           0x200002a0        0x0 /home/andrew/bin/gcc-arm/bin/../lib/gcc/arm-none-eabi/4.9.3/armv7e-m/crtn.o
 *(.bss*)
 .bss.__malloc_max_total_mem
                0x200002a0        0x4 /home/andrew/bin/gcc-arm/bin/../lib/gcc/arm-none-eabi/4.9.3/../../../../arm-none-eabi/lib/armv7e-m/libc.a(lib_a-mallocr.o)
                0x200002a0                __malloc_max_total_mem
 .bss.__malloc_max_sbrked_mem
                0x200002a4        0x4 /home/andrew/bin/gcc-arm/bin/../lib/gcc/arm-none-eabi/4.9.3/../../../../arm-none-eabi/lib/armv7e-m/libc.a(lib_a-mallocr.o)
                0x200002a4                __malloc_max_sbrked_mem
 .bss.__malloc_top_pad
                0x200002a8        0x4 /home/andrew/bin/gcc-arm/bin/../lib/gcc/arm-none-eabi/4.9.3/../../../../arm-none-eabi/lib/armv7e-m/libc.a(lib_a-mallocr.o)
                0x200002a8                __malloc_top_pad
 .bss.__malloc_current_mallinfo
                0x200002ac       0x28 /home/andrew/bin/gcc-arm/bin/../lib/gcc/arm-none-eabi/4.9.3/../../../../arm-none-eabi/lib/armv7e-m/libc.a(lib_a-mallocr.o)
                0x200002ac                __malloc_current_mallinfo
 .bss._PathLocale
                0x200002d4        0x4 /home/andrew/bin/gcc-arm/bin/../lib/gcc/arm-none-eabi/4.9.3/../../../../arm-none-eabi/lib/armv7e-m/libc.a(lib_a-locale.o)
                0x200002d4                _PathLocale
 .bss.__nlocale_changed
                0x200002d8        0x4 /home/andrew/bin/gcc-arm/bin/../lib/gcc/arm-none-eabi/4.9.3/../../../../arm-none-eabi/lib/armv7e-m/libc.a(lib_a-locale.o)
                0x200002d8                __nlocale_changed
 .bss.__mlocale_changed
                0x200002dc        0x4 /home/andrew/bin/gcc-arm/bin/../lib/gcc/arm-none-eabi/4.9.3/../../../../arm-none-eabi/lib/armv7e-m/libc.a(lib_a-locale.o)
                0x200002dc                __mlocale_changed
 .bss.heap_end.4079
                0x200002e0        0x4 /home/andrew/bin/gcc-arm/bin/../lib/gcc/arm-none-eabi/4.9.3/../../../../arm-none-eabi/lib/armv7e-m/libnosys.a(sbrk.o)
 *(COMMON)
 COMMON         0x200002e4      0x62c build/usbd_midi.c.o
                0x200002e4                usbd_midi_tx_q
                0x200003e4                usbd_midi_tx_q_inp
                0x200003e8                usbd_midi_tx_q_outp
                0x200003ec                USBD_Device
                0x20000610                usbd_midi_tx_buf
                0x20000710                USBD_StrDesc
                0x20000810                usbd_midi_rx_buf
 COMMON         0x20000910      0x3b8 build/usbd_conf.c.o
                0x20000910                usbdev_handle
 COMMON         0x20000cc8        0x8 build/power_ctrl.c.o
                0x20000cc8                pwrs
 COMMON         0x20000cd0        0x4 build/main.c.o
                0x20000cd0                startup_wait
 COMMON         0x20000cd4      0x154 build/switch_filter.c.o
                0x20000cd4                sw_state
                0x20000d94                switch_sw_debounce
                0x20000d98                switch_enc_timeout
                0x20000d9c                switch_sw_timeout
                0x20000da0                switch_event_outp
                0x20000da4                switch_event_inp
                0x20000da8                switch_event_queue
 COMMON         0x20000e28       0xfc build/panel_if.c.o
                0x20000e28                panel_if_blink_state
                0x20000e68                panel_if_led_fb
                0x20000e88                panel_if_blink
                0x20000ec8                panel_spi_rx_buf
                0x20000ecc                panel_spi_handle
 COMMON         0x20000f24       0x84 build/analog_out.c.o
                0x20000f24                aout_spi_handle
                0x20000f7c                aouts
 COMMON         0x20000fa8      0x484 build/cvproc.c.o
                0x20000fa8                cvstate
 COMMON         0x2000142c       0x58 build/ioctl.c.o
                0x2000142c                ios
                0x2000143c                ioctl_adc_handle
 COMMON         0x20001484       0x64 build/lcd_fsmc_if.c.o
                0x20001484                lcd_timing
                0x200014a0                lcd_sram
 COMMON         0x200014e8       0x40 build/gui.c.o
                0x200014e8                tempstr
 COMMON         0x20001528       0x14 build/panel_menu.c.o
                0x20001528                pmstate
 COMMON         0x2000153c      0x838 build/panel.c.o
                0x2000153c                pstate
 COMMON         0x20001d74       0x34 build/step_edit.c.o
                0x20001d74                sedits
 COMMON         0x20001da8       0x10 build/song_edit.c.o
                0x20001da8                sngedits
 COMMON         0x20001db8       0x78 build/midi_stream.c.o
                0x20001db8                midi_stream_queue_inp
                0x20001dec                midi_stream_send_byte_state
                0x20001dfc                midi_stream_queue_outp
 COMMON         0x20001e30      0x400 build/log.c.o
                0x20001e30                log_str
 COMMON         0x20002230      0x800 build/state_change.c.o
                0x20002230                schstate
 COMMON         0x20002a30       0x45 build/lcd_drv.c.o
                0x20002a30                lcd_cmd_data
                0x20002a70                lcd_cmd_data_count
                0x20002a74                lcd_cmd
 *fill*         0x20002a75        0x3 
 COMMON         0x20002a78      0x2a0 build/spi_flash.c.o
                0x20002a78                spi_flash_spi_handle
                0x20002ad0                sflashs
 COMMON         0x20002d18        0x6 build/iface_midi_router.c.o
                0x20002d18                ifacemrs
 *fill*         0x20002d1e        0x2 
 COMMON         0x20002d20      0x384 build/usbh_midi.c.o
                0x20002d20                usbh_rxbuf
                0x20002d60                hUSBHost
                0x20003028                usbh_txbuf
                0x20003068                usbh_task_timer
 COMMON         0x200030a4      0x298 build/usbh_conf.c.o
                0x200030a4                hhcd
 COMMON         0x2000333c        0x4 build/delay.c.o
                0x2000333c                delay_count
 COMMON         0x20003340       0x18 build/metronome.c.o
                0x20003340                mnstate
 COMMON         0x20003358     0x10d8 build/sysex.c.o
                0x20003358                syxs
 COMMON         0x20004430      0x100 build/pattern.c.o
                0x20004430                patterns
 COMMON         0x20004530      0x330 build/arp.c.o
                0x20004530                astate
 COMMON         0x20004860       0x30 build/seq_ctrl.c.o
                0x20004860                sstate
 COMMON         0x20004890      0x31c build/arp_progs.c.o
                0x20004890                aprog
                0x20004ba8                aprog_load_track
 *fill*         0x20004bac        0x4 
 COMMON         0x20004bb0       0xc0 build/clock.c.o
                0x20004bb0                clks
 COMMON         0x20004c70       0x14 build/clock_out.c.o
                0x20004c70                clkouts
 COMMON         0x20004c84     0x3624 build/seq_engine.c.o
                0x20004c84                sestate
 COMMON         0x200082a8     0x5008 build/song.c.o
                0x200082a8                song
                0x2000d2a8                songs
 COMMON         0x2000d2b0      0x330 build/outproc.c.o
                0x2000d2b0                opstate
 COMMON         0x2000d5e0       0x6c build/spi_callbacks.c.o
                0x2000d5e0                spi_rx_half_cplt_cb
                0x2000d5ec                spi_handle
                0x2000d5f8                spi_init_cb
                0x2000d604                spi_error_cb
                0x2000d610                spi_txrx_half_cplt_cb
                0x2000d61c                spi_tx_cplt_cb
                0x2000d628                spi_rx_cplt_cb
                0x2000d634                spi_tx_half_cplt_cb
                0x2000d640                spi_txrx_cplt_cb
 COMMON         0x2000d64c       0x1c build/ext_flash.c.o
                0x2000d64c                extfs
 COMMON         0x2000d668      0x1c8 build/din_midi.c.o
                0x2000d668                din_midi1_handle
                0x2000d6a8                din_midi_tx1_done
                0x2000d6ac                din_midi_rx_inp
                0x2000d6b0                din_midi1_dma_tx_handle
                0x2000d708                din_midi_tx2_buf
                0x2000d718                din_midi_rx_outp
                0x2000d71c                din_midi2_dma_tx_handle
                0x2000d774                din_midi_rx1_buf
                0x2000d784                din_midi2_handle
                0x2000d7c4                din_midi_tx1_buf
                0x2000d7d4                din_midi_tx2_done
                0x2000d7d8                din_midi1_dma_rx_handle
 COMMON         0x2000d830       0x3c build/stm32f4xx_hal_timebase_tim_template.c.o
                0x2000d830                TimHandle
 COMMON         0x2000d86c        0x4 build/stm32f4xx_hal.c.o
                0x2000d86c                uwTick
 COMMON         0x2000d870       0x20 build/stm32f4xx_hal_flash.c.o
                0x2000d870                pFlash
 COMMON         0x2000d890        0x4 /home/andrew/bin/gcc-arm/bin/../lib/gcc/arm-none-eabi/4.9.3/../../../../arm-none-eabi/lib/armv7e-m/libc.a(lib_a-reent.o)
                0x2000d890                errno
                0x2000d894                . = ALIGN (0x4)
                0x2000d894                _ebss = .
                0x2000d894                __bss_end__ = _ebss

._user_heap_stack
                0x2000d894      0x600
                0x2000d894                . = ALIGN (0x4)
                0x2000d894                PROVIDE (end, .)
                0x2000d894                PROVIDE (_end, .)
                0x2000da94                . = (. + _Min_Heap_Size)
 *fill*         0x2000d894      0x200 
                0x2000de94                . = (. + _Min_Stack_Size)
 *fill*         0x2000da94      0x400 
                0x2000de94                . = ALIGN (0x4)

/DISCARD/
 libc.a(*)
 libm.a(*)
 libgcc.a(*)

.ARM.attributes
                0x00000000       0x2a
 *(.ARM.attributes)
 .ARM.attributes
                0x00000000       0x1e /home/andrew/bin/gcc-arm/bin/../lib/gcc/arm-none-eabi/4.9.3/armv7e-m/crti.o
 .ARM.attributes
                0x0000001e       0x2e /home/andrew/bin/gcc-arm/bin/../lib/gcc/arm-none-eabi/4.9.3/armv7e-m/crtbegin.o
 .ARM.attributes
                0x0000004c       0x1c /home/andrew/bin/gcc-arm/bin/../lib/gcc/arm-none-eabi/4.9.3/../../../../arm-none-eabi/lib/armv7e-m/crt0.o
 .ARM.attributes
                0x00000068       0x33 build/usbh_pipes.c.o
 .ARM.attributes
                0x0000009b       0x33 build/usbh_ctlreq.c.o
 .ARM.attributes
                0x000000ce       0x33 build/usbh_ioreq.c.o
 .ARM.attributes
                0x00000101       0x33 build/usbh_core.c.o
 .ARM.attributes
                0x00000134       0x33 build/usbd_ioreq.c.o
 .ARM.attributes
                0x00000167       0x33 build/usbd_core.c.o
 .ARM.attributes
                0x0000019a       0x33 build/usbd_ctlreq.c.o
 .ARM.attributes
                0x000001cd       0x33 build/usbd_midi.c.o
 .ARM.attributes
                0x00000200       0x33 build/usbd_conf.c.o
 .ARM.attributes
                0x00000233       0x33 build/power_ctrl.c.o
 .ARM.attributes
                0x00000266       0x33 build/stm32f4xx_it.c.o
 .ARM.attributes
                0x00000299       0x33 build/main.c.o
 .ARM.attributes
                0x000002cc       0x33 build/switch_filter.c.o
 .ARM.attributes
                0x000002ff       0x33 build/panel_if.c.o
 .ARM.attributes
                0x00000332       0x33 build/analog_out.c.o
 .ARM.attributes
                0x00000365       0x33 build/debug.c.o
 .ARM.attributes
                0x00000398       0x33 build/cvproc.c.o
 .ARM.attributes
                0x000003cb       0x33 build/stm32f4xx_hal_msp.c.o
 .ARM.attributes
                0x000003fe       0x33 build/gfx.c.o
 .ARM.attributes
                0x00000431       0x33 build/ioctl.c.o
 .ARM.attributes
                0x00000464       0x33 build/lcd_fsmc_if.c.o
 .ARM.attributes
                0x00000497       0x33 build/ILI948x_drv.c.o
 .ARM.attributes
                0x000004ca       0x33 build/font_sinclair_8x8.c.o
 .ARM.attributes
                0x000004fd       0x33 build/font_system_8x12.c.o
 .ARM.attributes
                0x00000530       0x33 build/gui.c.o
 .ARM.attributes
                0x00000563       0x33 build/panel_menu.c.o
 .ARM.attributes
                0x00000596       0x33 build/panel.c.o
 .ARM.attributes
                0x000005c9       0x33 build/step_edit.c.o
 .ARM.attributes
                0x000005fc       0x33 build/song_edit.c.o
 .ARM.attributes
                0x0000062f       0x33 build/config_store.c.o
 .ARM.attributes
                0x00000662       0x33 build/midi_stream.c.o
 .ARM.attributes
                0x00000695       0x33 build/midi_utils.c.o
 .ARM.attributes
                0x000006c8       0x33 build/log.c.o
 .ARM.attributes
                0x000006fb       0x33 build/time_utils.c.o
 .ARM.attributes
                0x0000072e       0x33 build/panel_utils.c.o
 .ARM.attributes
                0x00000761       0x33 build/state_change.c.o
 .ARM.attributes
                0x00000794       0x33 build/seq_utils.c.o
 .ARM.attributes
                0x000007c7       0x33 build/system_stm32f4xx.c.o
 .ARM.attributes
                0x000007fa       0x21 build/startup_stm32f407xx.s.o
 .ARM.attributes
                0x0000081b       0x33 build/lcd_drv.c.o
 .ARM.attributes
                0x0000084e       0x33 build/spi_flash.c.o
 .ARM.attributes
                0x00000881       0x33 build/iface_midi_router.c.o
 .ARM.attributes
                0x000008b4       0x33 build/iface_panel.c.o
 .ARM.attributes
                0x000008e7       0x33 build/usbh_midi.c.o
 .ARM.attributes
                0x0000091a       0x33 build/usbh_conf.c.o
 .ARM.attributes
                0x0000094d       0x33 build/delay.c.o
 .ARM.attributes
                0x00000980       0x33 build/metronome.c.o
 .ARM.attributes
                0x000009b3       0x33 build/sysex.c.o
 .ARM.attributes
                0x000009e6       0x33 build/midi_ctrl.c.o
 .ARM.attributes
                0x00000a19       0x33 build/pattern.c.o
 .ARM.attributes
                0x00000a4c       0x33 build/arp.c.o
 .ARM.attributes
                0x00000a7f       0x33 build/seq_ctrl.c.o
 .ARM.attributes
                0x00000ab2       0x33 build/arp_progs.c.o
 .ARM.attributes
                0x00000ae5       0x33 build/clock.c.o
 .ARM.attributes
                0x00000b18       0x33 build/clock_out.c.o
 .ARM.attributes
                0x00000b4b       0x33 build/scale.c.o
 .ARM.attributes
                0x00000b7e       0x33 build/seq_engine.c.o
 .ARM.attributes
                0x00000bb1       0x33 build/song.c.o
 .ARM.attributes
                0x00000be4       0x33 build/outproc.c.o
 .ARM.attributes
                0x00000c17       0x33 build/spi_callbacks.c.o
 .ARM.attributes
                0x00000c4a       0x33 build/ext_flash.c.o
 .ARM.attributes
                0x00000c7d       0x33 build/din_midi.c.o
 .ARM.attributes
                0x00000cb0       0x33 build/stm32f4xx_hal_dma_ex.c.o
 .ARM.attributes
                0x00000ce3       0x33 build/stm32f4xx_hal_sai.c.o
 .ARM.attributes
                0x00000d16       0x33 build/stm32f4xx_hal_timebase_tim_template.c.o
 .ARM.attributes
                0x00000d49       0x33 build/stm32f4xx_hal_fmpi2c.c.o
 .ARM.attributes
                0x00000d7c       0x33 build/stm32f4xx_hal_hcd.c.o
 .ARM.attributes
                0x00000daf       0x33 build/stm32f4xx_hal_nor.c.o
 .ARM.attributes
                0x00000de2       0x33 build/stm32f4xx_hal_smartcard.c.o
 .ARM.attributes
                0x00000e15       0x33 build/stm32f4xx_hal_hash_ex.c.o
 .ARM.attributes
                0x00000e48       0x33 build/stm32f4xx_hal_adc_ex.c.o
 .ARM.attributes
                0x00000e7b       0x33 build/stm32f4xx_hal_spi.c.o
 .ARM.attributes
                0x00000eae       0x33 build/stm32f4xx_hal_tim_ex.c.o
 .ARM.attributes
                0x00000ee1       0x33 build/stm32f4xx_hal_ltdc.c.o
 .ARM.attributes
                0x00000f14       0x33 build/stm32f4xx_hal_qspi.c.o
 .ARM.attributes
                0x00000f47       0x33 build/stm32f4xx_hal_nand.c.o
 .ARM.attributes
                0x00000f7a       0x33 build/stm32f4xx_hal_tim.c.o
 .ARM.attributes
                0x00000fad       0x33 build/stm32f4xx_hal_dsi.c.o
 .ARM.attributes
                0x00000fe0       0x33 build/stm32f4xx_hal_cryp_ex.c.o
 .ARM.attributes
                0x00001013       0x33 build/stm32f4xx_ll_fmc.c.o
 .ARM.attributes
                0x00001046       0x33 build/stm32f4xx_hal_pcd.c.o
 .ARM.attributes
                0x00001079       0x33 build/stm32f4xx_hal_gpio.c.o
 .ARM.attributes
                0x000010ac       0x33 build/stm32f4xx_hal_pcd_ex.c.o
 .ARM.attributes
                0x000010df       0x33 build/stm32f4xx_hal_pwr.c.o
 .ARM.attributes
                0x00001112       0x33 build/stm32f4xx_hal_dac.c.o
 .ARM.attributes
                0x00001145       0x33 build/stm32f4xx_hal_i2c_ex.c.o
 .ARM.attributes
                0x00001178       0x33 build/stm32f4xx_hal_can.c.o
 .ARM.attributes
                0x000011ab       0x33 build/stm32f4xx_hal_rng.c.o
 .ARM.attributes
                0x000011de       0x33 build/stm32f4xx_hal_uart.c.o
 .ARM.attributes
                0x00001211       0x33 build/stm32f4xx_hal_fmpi2c_ex.c.o
 .ARM.attributes
                0x00001244       0x33 build/stm32f4xx_hal_flash_ex.c.o
 .ARM.attributes
                0x00001277       0x33 build/stm32f4xx_hal_ltdc_ex.c.o
 .ARM.attributes
                0x000012aa       0x33 build/stm32f4xx_hal_sram.c.o
 .ARM.attributes
                0x000012dd       0x33 build/stm32f4xx_hal_sd.c.o
 .ARM.attributes
                0x00001310       0x33 build/stm32f4xx_hal_pccard.c.o
 .ARM.attributes
                0x00001343       0x33 build/stm32f4xx_hal_hash.c.o
 .ARM.attributes
                0x00001376       0x33 build/stm32f4xx_hal_dcmi_ex.c.o
 .ARM.attributes
                0x000013a9       0x33 build/stm32f4xx_ll_sdmmc.c.o
 .ARM.attributes
                0x000013dc       0x33 build/stm32f4xx_hal.c.o
 .ARM.attributes
                0x0000140f       0x33 build/stm32f4xx_hal_i2s.c.o
 .ARM.attributes
                0x00001442       0x33 build/stm32f4xx_hal_wwdg.c.o
 .ARM.attributes
                0x00001475       0x33 build/stm32f4xx_hal_iwdg.c.o
 .ARM.attributes
                0x000014a8       0x33 build/stm32f4xx_hal_pwr_ex.c.o
 .ARM.attributes
                0x000014db       0x33 build/stm32f4xx_hal_eth.c.o
 .ARM.attributes
                0x0000150e       0x33 build/stm32f4xx_hal_dma2d.c.o
 .ARM.attributes
                0x00001541       0x33 build/stm32f4xx_hal_crc.c.o
 .ARM.attributes
                0x00001574       0x33 build/stm32f4xx_hal_spdifrx.c.o
 .ARM.attributes
                0x000015a7       0x33 build/stm32f4xx_hal_rtc_ex.c.o
 .ARM.attributes
                0x000015da       0x33 build/stm32f4xx_hal_cec.c.o
 .ARM.attributes
                0x0000160d       0x33 build/stm32f4xx_hal_dcmi.c.o
 .ARM.attributes
                0x00001640       0x33 build/stm32f4xx_hal_lptim.c.o
 .ARM.attributes
                0x00001673       0x33 build/stm32f4xx_hal_irda.c.o
 .ARM.attributes
                0x000016a6       0x33 build/stm32f4xx_ll_fsmc.c.o
 .ARM.attributes
                0x000016d9       0x33 build/stm32f4xx_hal_i2s_ex.c.o
 .ARM.attributes
                0x0000170c       0x33 build/stm32f4xx_ll_usb.c.o
 .ARM.attributes
                0x0000173f       0x33 build/stm32f4xx_hal_sdram.c.o
 .ARM.attributes
                0x00001772       0x33 build/stm32f4xx_hal_rcc_ex.c.o
 .ARM.attributes
                0x000017a5       0x33 build/stm32f4xx_hal_sai_ex.c.o
 .ARM.attributes
                0x000017d8       0x33 build/stm32f4xx_hal_dma.c.o
 .ARM.attributes
                0x0000180b       0x33 build/stm32f4xx_hal_rcc.c.o
 .ARM.attributes
                0x0000183e       0x33 build/stm32f4xx_hal_cortex.c.o
 .ARM.attributes
                0x00001871       0x33 build/stm32f4xx_hal_i2c.c.o
 .ARM.attributes
                0x000018a4       0x33 build/stm32f4xx_hal_rtc.c.o
 .ARM.attributes
                0x000018d7       0x33 build/stm32f4xx_hal_cryp.c.o
 .ARM.attributes
                0x0000190a       0x33 build/stm32f4xx_hal_dac_ex.c.o
 .ARM.attributes
                0x0000193d       0x33 build/stm32f4xx_hal_flash.c.o
 .ARM.attributes
                0x00001970       0x33 build/stm32f4xx_hal_adc.c.o
 .ARM.attributes
                0x000019a3       0x33 build/stm32f4xx_hal_flash_ramfunc.c.o
 .ARM.attributes
                0x000019d6       0x33 build/stm32f4xx_hal_usart.c.o
 .ARM.attributes
                0x00001a09       0x1e /home/andrew/bin/gcc-arm/bin/../lib/gcc/arm-none-eabi/4.9.3/armv7e-m/libgcc.a(_arm_addsubdf3.o)
 .ARM.attributes
                0x00001a27       0x1e /home/andrew/bin/gcc-arm/bin/../lib/gcc/arm-none-eabi/4.9.3/armv7e-m/libgcc.a(_arm_muldivdf3.o)
 .ARM.attributes
                0x00001a45       0x1e /home/andrew/bin/gcc-arm/bin/../lib/gcc/arm-none-eabi/4.9.3/armv7e-m/libgcc.a(_arm_cmpdf2.o)
 .ARM.attributes
                0x00001a63       0x1e /home/andrew/bin/gcc-arm/bin/../lib/gcc/arm-none-eabi/4.9.3/armv7e-m/libgcc.a(_arm_truncdfsf2.o)
 .ARM.attributes
                0x00001a81       0x1e /home/andrew/bin/gcc-arm/bin/../lib/gcc/arm-none-eabi/4.9.3/armv7e-m/libgcc.a(_arm_addsubsf3.o)
 .ARM.attributes
                0x00001a9f       0x1e /home/andrew/bin/gcc-arm/bin/../lib/gcc/arm-none-eabi/4.9.3/armv7e-m/libgcc.a(_arm_muldivsf3.o)
 .ARM.attributes
                0x00001abd       0x1e /home/andrew/bin/gcc-arm/bin/../lib/gcc/arm-none-eabi/4.9.3/armv7e-m/libgcc.a(_arm_cmpsf2.o)
 .ARM.attributes
                0x00001adb       0x1e /home/andrew/bin/gcc-arm/bin/../lib/gcc/arm-none-eabi/4.9.3/armv7e-m/libgcc.a(_arm_fixsfsi.o)
 .ARM.attributes
                0x00001af9       0x2e /home/andrew/bin/gcc-arm/bin/../lib/gcc/arm-none-eabi/4.9.3/armv7e-m/libgcc.a(_fixunsdfdi.o)
 .ARM.attributes
                0x00001b27       0x1e /home/andrew/bin/gcc-arm/bin/../lib/gcc/arm-none-eabi/4.9.3/armv7e-m/libgcc.a(_arm_fixunsdfsi.o)
 .ARM.attributes
                0x00001b45       0x2e /home/andrew/bin/gcc-arm/bin/../lib/gcc/arm-none-eabi/4.9.3/../../../../arm-none-eabi/lib/armv7e-m/libc.a(lib_a-exit.o)
 .ARM.attributes
                0x00001b73       0x2e /home/andrew/bin/gcc-arm/bin/../lib/gcc/arm-none-eabi/4.9.3/../../../../arm-none-eabi/lib/armv7e-m/libc.a(lib_a-impure.o)
 .ARM.attributes
                0x00001ba1       0x2e /home/andrew/bin/gcc-arm/bin/../lib/gcc/arm-none-eabi/4.9.3/../../../../arm-none-eabi/lib/armv7e-m/libc.a(lib_a-init.o)
 .ARM.attributes
                0x00001bcf       0x2e /home/andrew/bin/gcc-arm/bin/../lib/gcc/arm-none-eabi/4.9.3/../../../../arm-none-eabi/lib/armv7e-m/libc.a(lib_a-malloc.o)
 .ARM.attributes
                0x00001bfd       0x2e /home/andrew/bin/gcc-arm/bin/../lib/gcc/arm-none-eabi/4.9.3/../../../../arm-none-eabi/lib/armv7e-m/libc.a(lib_a-mallocr.o)
 .ARM.attributes
                0x00001c2b       0x1c /home/andrew/bin/gcc-arm/bin/../lib/gcc/arm-none-eabi/4.9.3/../../../../arm-none-eabi/lib/armv7e-m/libc.a(lib_a-memcpy.o)
 .ARM.attributes
                0x00001c47       0x2e /home/andrew/bin/gcc-arm/bin/../lib/gcc/arm-none-eabi/4.9.3/../../../../arm-none-eabi/lib/armv7e-m/libc.a(lib_a-memset.o)
 .ARM.attributes
                0x00001c75       0x2e /home/andrew/bin/gcc-arm/bin/../lib/gcc/arm-none-eabi/4.9.3/../../../../arm-none-eabi/lib/armv7e-m/libc.a(lib_a-mlock.o)
 .ARM.attributes
                0x00001ca3       0x2e /home/andrew/bin/gcc-arm/bin/../lib/gcc/arm-none-eabi/4.9.3/../../../../arm-none-eabi/lib/armv7e-m/libc.a(lib_a-printf.o)
 .ARM.attributes
                0x00001cd1       0x2e /home/andrew/bin/gcc-arm/bin/../lib/gcc/arm-none-eabi/4.9.3/../../../../arm-none-eabi/lib/armv7e-m/libc.a(lib_a-rand.o)
 .ARM.attributes
                0x00001cff       0x2e /home/andrew/bin/gcc-arm/bin/../lib/gcc/arm-none-eabi/4.9.3/../../../../arm-none-eabi/lib/armv7e-m/libc.a(lib_a-sbrkr.o)
 .ARM.attributes
                0x00001d2d       0x2e /home/andrew/bin/gcc-arm/bin/../lib/gcc/arm-none-eabi/4.9.3/../../../../arm-none-eabi/lib/armv7e-m/libc.a(lib_a-sprintf.o)
 .ARM.attributes
                0x00001d5b       0x1c /home/andrew/bin/gcc-arm/bin/../lib/gcc/arm-none-eabi/4.9.3/../../../../arm-none-eabi/lib/armv7e-m/libc.a(lib_a-strcmp.o)
 .ARM.attributes
                0x00001d77       0x2e /home/andrew/bin/gcc-arm/bin/../lib/gcc/arm-none-eabi/4.9.3/../../../../arm-none-eabi/lib/armv7e-m/libc.a(lib_a-strcpy.o)
 .ARM.attributes
                0x00001da5       0x2e /home/andrew/bin/gcc-arm/bin/../lib/gcc/arm-none-eabi/4.9.3/../../../../arm-none-eabi/lib/armv7e-m/libc.a(lib_a-strlen.o)
 .ARM.attributes
                0x00001dd3       0x2e /home/andrew/bin/gcc-arm/bin/../lib/gcc/arm-none-eabi/4.9.3/../../../../arm-none-eabi/lib/armv7e-m/libc.a(lib_a-svfprintf.o)
 .ARM.attributes
                0x00001e01       0x2e /home/andrew/bin/gcc-arm/bin/../lib/gcc/arm-none-eabi/4.9.3/../../../../arm-none-eabi/lib/armv7e-m/libc.a(lib_a-vfprintf.o)
 .ARM.attributes
                0x00001e2f       0x2e /home/andrew/bin/gcc-arm/bin/../lib/gcc/arm-none-eabi/4.9.3/../../../../arm-none-eabi/lib/armv7e-m/libc.a(lib_a-vsprintf.o)
 .ARM.attributes
                0x00001e5d       0x2e /home/andrew/bin/gcc-arm/bin/../lib/gcc/arm-none-eabi/4.9.3/../../../../arm-none-eabi/lib/armv7e-m/libc.a(lib_a-wsetup.o)
 .ARM.attributes
                0x00001e8b       0x2e /home/andrew/bin/gcc-arm/bin/../lib/gcc/arm-none-eabi/4.9.3/../../../../arm-none-eabi/lib/armv7e-m/libc.a(lib_a-__call_atexit.o)
 .ARM.attributes
                0x00001eb9       0x2e /home/andrew/bin/gcc-arm/bin/../lib/gcc/arm-none-eabi/4.9.3/../../../../arm-none-eabi/lib/armv7e-m/libc.a(lib_a-atexit.o)
 .ARM.attributes
                0x00001ee7       0x2e /home/andrew/bin/gcc-arm/bin/../lib/gcc/arm-none-eabi/4.9.3/../../../../arm-none-eabi/lib/armv7e-m/libc.a(lib_a-dtoa.o)
 .ARM.attributes
                0x00001f15       0x2e /home/andrew/bin/gcc-arm/bin/../lib/gcc/arm-none-eabi/4.9.3/../../../../arm-none-eabi/lib/armv7e-m/libc.a(lib_a-fflush.o)
 .ARM.attributes
                0x00001f43       0x2e /home/andrew/bin/gcc-arm/bin/../lib/gcc/arm-none-eabi/4.9.3/../../../../arm-none-eabi/lib/armv7e-m/libc.a(lib_a-findfp.o)
 .ARM.attributes
                0x00001f71       0x2e /home/andrew/bin/gcc-arm/bin/../lib/gcc/arm-none-eabi/4.9.3/../../../../arm-none-eabi/lib/armv7e-m/libc.a(lib_a-fini.o)
 .ARM.attributes
                0x00001f9f       0x2e /home/andrew/bin/gcc-arm/bin/../lib/gcc/arm-none-eabi/4.9.3/../../../../arm-none-eabi/lib/armv7e-m/libc.a(lib_a-freer.o)
 .ARM.attributes
                0x00001fcd       0x2e /home/andrew/bin/gcc-arm/bin/../lib/gcc/arm-none-eabi/4.9.3/../../../../arm-none-eabi/lib/armv7e-m/libc.a(lib_a-fwalk.o)
 .ARM.attributes
                0x00001ffb       0x2e /home/andrew/bin/gcc-arm/bin/../lib/gcc/arm-none-eabi/4.9.3/../../../../arm-none-eabi/lib/armv7e-m/libc.a(lib_a-locale.o)
 .ARM.attributes
                0x00002029       0x2e /home/andrew/bin/gcc-arm/bin/../lib/gcc/arm-none-eabi/4.9.3/../../../../arm-none-eabi/lib/armv7e-m/libc.a(lib_a-makebuf.o)
 .ARM.attributes
                0x00002057       0x2e /home/andrew/bin/gcc-arm/bin/../lib/gcc/arm-none-eabi/4.9.3/../../../../arm-none-eabi/lib/armv7e-m/libc.a(lib_a-memchr.o)
 .ARM.attributes
                0x00002085       0x2e /home/andrew/bin/gcc-arm/bin/../lib/gcc/arm-none-eabi/4.9.3/../../../../arm-none-eabi/lib/armv7e-m/libc.a(lib_a-mprec.o)
 .ARM.attributes
                0x000020b3       0x2e /home/andrew/bin/gcc-arm/bin/../lib/gcc/arm-none-eabi/4.9.3/../../../../arm-none-eabi/lib/armv7e-m/libc.a(lib_a-reent.o)
 .ARM.attributes
                0x000020e1       0x2e /home/andrew/bin/gcc-arm/bin/../lib/gcc/arm-none-eabi/4.9.3/../../../../arm-none-eabi/lib/armv7e-m/libc.a(lib_a-s_fpclassify.o)
 .ARM.attributes
                0x0000210f       0x2e /home/andrew/bin/gcc-arm/bin/../lib/gcc/arm-none-eabi/4.9.3/../../../../arm-none-eabi/lib/armv7e-m/libc.a(lib_a-stdio.o)
 .ARM.attributes
                0x0000213d       0x2e /home/andrew/bin/gcc-arm/bin/../lib/gcc/arm-none-eabi/4.9.3/../../../../arm-none-eabi/lib/armv7e-m/libc.a(lib_a-svfiprintf.o)
 .ARM.attributes
                0x0000216b       0x2e /home/andrew/bin/gcc-arm/bin/../lib/gcc/arm-none-eabi/4.9.3/../../../../arm-none-eabi/lib/armv7e-m/libc.a(lib_a-vfiprintf.o)
 .ARM.attributes
                0x00002199       0x2e /home/andrew/bin/gcc-arm/bin/../lib/gcc/arm-none-eabi/4.9.3/../../../../arm-none-eabi/lib/armv7e-m/libc.a(lib_a-writer.o)
 .ARM.attributes
                0x000021c7       0x2e /home/andrew/bin/gcc-arm/bin/../lib/gcc/arm-none-eabi/4.9.3/../../../../arm-none-eabi/lib/armv7e-m/libc.a(lib_a-__atexit.o)
 .ARM.attributes
                0x000021f5       0x2e /home/andrew/bin/gcc-arm/bin/../lib/gcc/arm-none-eabi/4.9.3/../../../../arm-none-eabi/lib/armv7e-m/libc.a(lib_a-callocr.o)
 .ARM.attributes
                0x00002223       0x2e /home/andrew/bin/gcc-arm/bin/../lib/gcc/arm-none-eabi/4.9.3/../../../../arm-none-eabi/lib/armv7e-m/libc.a(lib_a-closer.o)
 .ARM.attributes
                0x00002251       0x2e /home/andrew/bin/gcc-arm/bin/../lib/gcc/arm-none-eabi/4.9.3/../../../../arm-none-eabi/lib/armv7e-m/libc.a(lib_a-fclose.o)
 .ARM.attributes
                0x0000227f       0x2e /home/andrew/bin/gcc-arm/bin/../lib/gcc/arm-none-eabi/4.9.3/../../../../arm-none-eabi/lib/armv7e-m/libc.a(lib_a-fputwc.o)
 .ARM.attributes
                0x000022ad       0x2e /home/andrew/bin/gcc-arm/bin/../lib/gcc/arm-none-eabi/4.9.3/../../../../arm-none-eabi/lib/armv7e-m/libc.a(lib_a-fstatr.o)
 .ARM.attributes
                0x000022db       0x2e /home/andrew/bin/gcc-arm/bin/../lib/gcc/arm-none-eabi/4.9.3/../../../../arm-none-eabi/lib/armv7e-m/libc.a(lib_a-fvwrite.o)
 .ARM.attributes
                0x00002309       0x2e /home/andrew/bin/gcc-arm/bin/../lib/gcc/arm-none-eabi/4.9.3/../../../../arm-none-eabi/lib/armv7e-m/libc.a(lib_a-isattyr.o)
 .ARM.attributes
                0x00002337       0x2e /home/andrew/bin/gcc-arm/bin/../lib/gcc/arm-none-eabi/4.9.3/../../../../arm-none-eabi/lib/armv7e-m/libc.a(lib_a-lseekr.o)
 .ARM.attributes
                0x00002365       0x2e /home/andrew/bin/gcc-arm/bin/../lib/gcc/arm-none-eabi/4.9.3/../../../../arm-none-eabi/lib/armv7e-m/libc.a(lib_a-memmove.o)
 .ARM.attributes
                0x00002393       0x2e /home/andrew/bin/gcc-arm/bin/../lib/gcc/arm-none-eabi/4.9.3/../../../../arm-none-eabi/lib/armv7e-m/libc.a(lib_a-readr.o)
 .ARM.attributes
                0x000023c1       0x2e /home/andrew/bin/gcc-arm/bin/../lib/gcc/arm-none-eabi/4.9.3/../../../../arm-none-eabi/lib/armv7e-m/libc.a(lib_a-reallocr.o)
 .ARM.attributes
                0x000023ef       0x2e /home/andrew/bin/gcc-arm/bin/../lib/gcc/arm-none-eabi/4.9.3/../../../../arm-none-eabi/lib/armv7e-m/libc.a(lib_a-wbuf.o)
 .ARM.attributes
                0x0000241d       0x2e /home/andrew/bin/gcc-arm/bin/../lib/gcc/arm-none-eabi/4.9.3/../../../../arm-none-eabi/lib/armv7e-m/libc.a(lib_a-wcrtomb.o)
 .ARM.attributes
                0x0000244b       0x2e /home/andrew/bin/gcc-arm/bin/../lib/gcc/arm-none-eabi/4.9.3/../../../../arm-none-eabi/lib/armv7e-m/libc.a(lib_a-wctomb_r.o)
 .ARM.attributes
                0x00002479       0x1e /home/andrew/bin/gcc-arm/bin/../lib/gcc/arm-none-eabi/4.9.3/armv7e-m/libgcc.a(_arm_fixdfsi.o)
 .ARM.attributes
                0x00002497       0x1e /home/andrew/bin/gcc-arm/bin/../lib/gcc/arm-none-eabi/4.9.3/armv7e-m/libgcc.a(_aeabi_uldivmod.o)
 .ARM.attributes
                0x000024b5       0x2e /home/andrew/bin/gcc-arm/bin/../lib/gcc/arm-none-eabi/4.9.3/armv7e-m/libgcc.a(bpabi.o)
 .ARM.attributes
                0x000024e3       0x1e /home/andrew/bin/gcc-arm/bin/../lib/gcc/arm-none-eabi/4.9.3/armv7e-m/libgcc.a(_dvmd_tls.o)
 .ARM.attributes
                0x00002501       0x2e /home/andrew/bin/gcc-arm/bin/../lib/gcc/arm-none-eabi/4.9.3/armv7e-m/libgcc.a(_divdi3.o)
 .ARM.attributes
                0x0000252f       0x2e /home/andrew/bin/gcc-arm/bin/../lib/gcc/arm-none-eabi/4.9.3/armv7e-m/libgcc.a(_udivdi3.o)
 .ARM.attributes
                0x0000255d       0x2e /home/andrew/bin/gcc-arm/bin/../lib/gcc/arm-none-eabi/4.9.3/../../../../arm-none-eabi/lib/armv7e-m/libnosys.a(close.o)
 .ARM.attributes
                0x0000258b       0x2e /home/andrew/bin/gcc-arm/bin/../lib/gcc/arm-none-eabi/4.9.3/../../../../arm-none-eabi/lib/armv7e-m/libnosys.a(fstat.o)
 .ARM.attributes
                0x000025b9       0x2e /home/andrew/bin/gcc-arm/bin/../lib/gcc/arm-none-eabi/4.9.3/../../../../arm-none-eabi/lib/armv7e-m/libnosys.a(isatty.o)
 .ARM.attributes
                0x000025e7       0x2e /home/andrew/bin/gcc-arm/bin/../lib/gcc/arm-none-eabi/4.9.3/../../../../arm-none-eabi/lib/armv7e-m/libnosys.a(lseek.o)
 .ARM.attributes
                0x00002615       0x2e /home/andrew/bin/gcc-arm/bin/../lib/gcc/arm-none-eabi/4.9.3/../../../../arm-none-eabi/lib/armv7e-m/libnosys.a(read.o)
 .ARM.attributes
                0x00002643       0x2e /home/andrew/bin/gcc-arm/bin/../lib/gcc/arm-none-eabi/4.9.3/../../../../arm-none-eabi/lib/armv7e-m/libnosys.a(sbrk.o)
 .ARM.attributes
                0x00002671       0x2e /home/andrew/bin/gcc-arm/bin/../lib/gcc/arm-none-eabi/4.9.3/../../../../arm-none-eabi/lib/armv7e-m/libnosys.a(_exit.o)
 .ARM.attributes
                0x0000269f       0x2e /home/andrew/bin/gcc-arm/bin/../lib/gcc/arm-none-eabi/4.9.3/armv7e-m/crtend.o
 .ARM.attributes
                0x000026cd       0x1e /home/andrew/bin/gcc-arm/bin/../lib/gcc/arm-none-eabi/4.9.3/armv7e-m/crtn.o
OUTPUT(main elf32-littlearm)

.debug_info     0x00000000    0x59e94
 .debug_info    0x00000000      0xa7c build/usbh_pipes.c.o
 .debug_info    0x00000a7c     0x12b6 build/usbh_ctlreq.c.o
 .debug_info    0x00001d32      0xdc3 build/usbh_ioreq.c.o
 .debug_info    0x00002af5     0x12cf build/usbh_core.c.o
 .debug_info    0x00003dc4      0x78f build/usbd_ioreq.c.o
 .debug_info    0x00004553      0xce4 build/usbd_core.c.o
 .debug_info    0x00005237      0xe08 build/usbd_ctlreq.c.o
 .debug_info    0x0000603f     0x10cf build/usbd_midi.c.o
 .debug_info    0x0000710e     0x1a1c build/usbd_conf.c.o
 .debug_info    0x00008b2a      0x700 build/power_ctrl.c.o
 .debug_info    0x0000922a     0x1508 build/stm32f4xx_it.c.o
 .debug_info    0x0000a732      0x8c1 build/main.c.o
 .debug_info    0x0000aff3      0x2f0 build/switch_filter.c.o
 .debug_info    0x0000b2e3     0x1bb6 build/panel_if.c.o
 .debug_info    0x0000ce99     0x10cb build/analog_out.c.o
 .debug_info    0x0000df64      0x740 build/debug.c.o
 .debug_info    0x0000e6a4      0xd27 build/cvproc.c.o
 .debug_info    0x0000f3cb      0x3e8 build/stm32f4xx_hal_msp.c.o
 .debug_info    0x0000f7b3      0x6c1 build/gfx.c.o
 .debug_info    0x0000fe74      0xc13 build/ioctl.c.o
 .debug_info    0x00010a87      0xd7c build/lcd_fsmc_if.c.o
 .debug_info    0x00011803     0x125d build/ILI948x_drv.c.o
 .debug_info    0x00012a60       0xad build/font_sinclair_8x8.c.o
 .debug_info    0x00012b0d       0xad build/font_system_8x12.c.o
 .debug_info    0x00012bba     0x39d6 build/gui.c.o
 .debug_info    0x00016590     0x23d9 build/panel_menu.c.o
 .debug_info    0x00018969     0x1a59 build/panel.c.o
 .debug_info    0x0001a3c2     0x19ea build/step_edit.c.o
 .debug_info    0x0001bdac      0x7cd build/song_edit.c.o
 .debug_info    0x0001c579      0x7fa build/config_store.c.o
 .debug_info    0x0001cd73      0x98b build/midi_stream.c.o
 .debug_info    0x0001d6fe      0x8c7 build/midi_utils.c.o
 .debug_info    0x0001dfc5      0x36c build/log.c.o
 .debug_info    0x0001e331       0xe4 build/time_utils.c.o
 .debug_info    0x0001e415      0x640 build/panel_utils.c.o
 .debug_info    0x0001ea55      0x3ac build/state_change.c.o
 .debug_info    0x0001ee01      0x2da build/seq_utils.c.o
 .debug_info    0x0001f0db      0x4aa build/system_stm32f4xx.c.o
 .debug_info    0x0001f585       0xc4 build/lcd_drv.c.o
 .debug_info    0x0001f649     0x1100 build/spi_flash.c.o
 .debug_info    0x00020749     0x104a build/iface_midi_router.c.o
 .debug_info    0x00021793      0x8e2 build/iface_panel.c.o
 .debug_info    0x00022075     0x1aff build/usbh_midi.c.o
 .debug_info    0x00023b74     0x1c08 build/usbh_conf.c.o
 .debug_info    0x0002577c      0x11f build/delay.c.o
 .debug_info    0x0002589b      0x42a build/metronome.c.o
 .debug_info    0x00025cc5      0x68a build/sysex.c.o
 .debug_info    0x0002634f      0x4fc build/midi_ctrl.c.o
 .debug_info    0x0002684b      0x6a1 build/pattern.c.o
 .debug_info    0x00026eec     0x11fa build/arp.c.o
 .debug_info    0x000280e6     0x3c2d build/seq_ctrl.c.o
 .debug_info    0x0002bd13     0x1391 build/arp_progs.c.o
 .debug_info    0x0002d0a4      0x7ba build/clock.c.o
 .debug_info    0x0002d85e      0x8f8 build/clock_out.c.o
 .debug_info    0x0002e156      0x1cd build/scale.c.o
 .debug_info    0x0002e323     0x3c1a build/seq_engine.c.o
 .debug_info    0x00031f3d     0x440e build/song.c.o
 .debug_info    0x0003634b      0x9b9 build/outproc.c.o
 .debug_info    0x00036d04      0x991 build/spi_callbacks.c.o
 .debug_info    0x00037695      0x6cc build/ext_flash.c.o
 .debug_info    0x00037d61     0x102a build/din_midi.c.o
 .debug_info    0x00038d8b      0x503 build/stm32f4xx_hal_dma_ex.c.o
 .debug_info    0x0003928e       0x99 build/stm32f4xx_hal_sai.c.o
 .debug_info    0x00039327      0xc06 build/stm32f4xx_hal_timebase_tim_template.c.o
 .debug_info    0x00039f2d       0x99 build/stm32f4xx_hal_fmpi2c.c.o
 .debug_info    0x00039fc6     0x12f3 build/stm32f4xx_hal_hcd.c.o
 .debug_info    0x0003b2b9       0x99 build/stm32f4xx_hal_nor.c.o
 .debug_info    0x0003b352       0x99 build/stm32f4xx_hal_smartcard.c.o
 .debug_info    0x0003b3eb       0x99 build/stm32f4xx_hal_hash_ex.c.o
 .debug_info    0x0003b484      0xb44 build/stm32f4xx_hal_adc_ex.c.o
 .debug_info    0x0003bfc8     0x18bd build/stm32f4xx_hal_spi.c.o
 .debug_info    0x0003d885     0x1592 build/stm32f4xx_hal_tim_ex.c.o
 .debug_info    0x0003ee17       0x99 build/stm32f4xx_hal_ltdc.c.o
 .debug_info    0x0003eeb0       0x99 build/stm32f4xx_hal_qspi.c.o
 .debug_info    0x0003ef49       0x99 build/stm32f4xx_hal_nand.c.o
 .debug_info    0x0003efe2     0x37ae build/stm32f4xx_hal_tim.c.o
 .debug_info    0x00042790       0x99 build/stm32f4xx_hal_dsi.c.o
 .debug_info    0x00042829       0x99 build/stm32f4xx_hal_cryp_ex.c.o
 .debug_info    0x000428c2       0x99 build/stm32f4xx_ll_fmc.c.o
 .debug_info    0x0004295b     0x15f3 build/stm32f4xx_hal_pcd.c.o
 .debug_info    0x00043f4e      0x70c build/stm32f4xx_hal_gpio.c.o
 .debug_info    0x0004465a      0x55d build/stm32f4xx_hal_pcd_ex.c.o
 .debug_info    0x00044bb7      0x840 build/stm32f4xx_hal_pwr.c.o
 .debug_info    0x000453f7       0x99 build/stm32f4xx_hal_dac.c.o
 .debug_info    0x00045490       0x99 build/stm32f4xx_hal_i2c_ex.c.o
 .debug_info    0x00045529       0x99 build/stm32f4xx_hal_can.c.o
 .debug_info    0x000455c2      0x55d build/stm32f4xx_hal_rng.c.o
 .debug_info    0x00045b1f     0x1201 build/stm32f4xx_hal_uart.c.o
 .debug_info    0x00046d20       0x99 build/stm32f4xx_hal_fmpi2c_ex.c.o
 .debug_info    0x00046db9      0x893 build/stm32f4xx_hal_flash_ex.c.o
 .debug_info    0x0004764c       0x99 build/stm32f4xx_hal_ltdc_ex.c.o
 .debug_info    0x000476e5      0xbe1 build/stm32f4xx_hal_sram.c.o
 .debug_info    0x000482c6     0x2b17 build/stm32f4xx_hal_sd.c.o
 .debug_info    0x0004addd       0x99 build/stm32f4xx_hal_pccard.c.o
 .debug_info    0x0004ae76       0x99 build/stm32f4xx_hal_hash.c.o
 .debug_info    0x0004af0f      0x5b7 build/stm32f4xx_hal_dcmi_ex.c.o
 .debug_info    0x0004b4c6      0x604 build/stm32f4xx_ll_sdmmc.c.o
 .debug_info    0x0004baca      0x91c build/stm32f4xx_hal.c.o
 .debug_info    0x0004c3e6      0xe80 build/stm32f4xx_hal_i2s.c.o
 .debug_info    0x0004d266       0x99 build/stm32f4xx_hal_wwdg.c.o
 .debug_info    0x0004d2ff       0x99 build/stm32f4xx_hal_iwdg.c.o
 .debug_info    0x0004d398      0x504 build/stm32f4xx_hal_pwr_ex.c.o
 .debug_info    0x0004d89c       0x99 build/stm32f4xx_hal_eth.c.o
 .debug_info    0x0004d935       0x99 build/stm32f4xx_hal_dma2d.c.o
 .debug_info    0x0004d9ce       0x99 build/stm32f4xx_hal_crc.c.o
 .debug_info    0x0004da67       0x99 build/stm32f4xx_hal_spdifrx.c.o
 .debug_info    0x0004db00       0x99 build/stm32f4xx_hal_rtc_ex.c.o
 .debug_info    0x0004db99       0x99 build/stm32f4xx_hal_cec.c.o
 .debug_info    0x0004dc32      0xab8 build/stm32f4xx_hal_dcmi.c.o
 .debug_info    0x0004e6ea       0x99 build/stm32f4xx_hal_lptim.c.o
 .debug_info    0x0004e783       0x99 build/stm32f4xx_hal_irda.c.o
 .debug_info    0x0004e81c      0xa1c build/stm32f4xx_ll_fsmc.c.o
 .debug_info    0x0004f238      0xf00 build/stm32f4xx_hal_i2s_ex.c.o
 .debug_info    0x00050138     0x17dd build/stm32f4xx_ll_usb.c.o
 .debug_info    0x00051915       0x99 build/stm32f4xx_hal_sdram.c.o
 .debug_info    0x000519ae      0x552 build/stm32f4xx_hal_rcc_ex.c.o
 .debug_info    0x00051f00       0x99 build/stm32f4xx_hal_sai_ex.c.o
 .debug_info    0x00051f99      0x82e build/stm32f4xx_hal_dma.c.o
 .debug_info    0x000527c7      0xcd9 build/stm32f4xx_hal_rcc.c.o
 .debug_info    0x000534a0      0xe51 build/stm32f4xx_hal_cortex.c.o
 .debug_info    0x000542f1     0x31ec build/stm32f4xx_hal_i2c.c.o
 .debug_info    0x000574dd       0x99 build/stm32f4xx_hal_rtc.c.o
 .debug_info    0x00057576       0x99 build/stm32f4xx_hal_cryp.c.o
 .debug_info    0x0005760f       0x99 build/stm32f4xx_hal_dac_ex.c.o
 .debug_info    0x000576a8      0x717 build/stm32f4xx_hal_flash.c.o
 .debug_info    0x00057dbf      0xd94 build/stm32f4xx_hal_adc.c.o
 .debug_info    0x00058b53       0x99 build/stm32f4xx_hal_flash_ramfunc.c.o
 .debug_info    0x00058bec     0x12a8 build/stm32f4xx_hal_usart.c.o

.debug_abbrev   0x00000000     0xe0a3
 .debug_abbrev  0x00000000      0x275 build/usbh_pipes.c.o
 .debug_abbrev  0x00000275      0x376 build/usbh_ctlreq.c.o
 .debug_abbrev  0x000005eb      0x209 build/usbh_ioreq.c.o
 .debug_abbrev  0x000007f4      0x40a build/usbh_core.c.o
 .debug_abbrev  0x00000bfe      0x16a build/usbd_ioreq.c.o
 .debug_abbrev  0x00000d68      0x26d build/usbd_core.c.o
 .debug_abbrev  0x00000fd5      0x31b build/usbd_ctlreq.c.o
 .debug_abbrev  0x000012f0      0x2ee build/usbd_midi.c.o
 .debug_abbrev  0x000015de      0x2cd build/usbd_conf.c.o
 .debug_abbrev  0x000018ab      0x1d2 build/power_ctrl.c.o
 .debug_abbrev  0x00001a7d      0x1f2 build/stm32f4xx_it.c.o
 .debug_abbrev  0x00001c6f      0x247 build/main.c.o
 .debug_abbrev  0x00001eb6      0x152 build/switch_filter.c.o
 .debug_abbrev  0x00002008      0x31a build/panel_if.c.o
 .debug_abbrev  0x00002322      0x275 build/analog_out.c.o
 .debug_abbrev  0x00002597      0x254 build/debug.c.o
 .debug_abbrev  0x000027eb      0x2a7 build/cvproc.c.o
 .debug_abbrev  0x00002a92       0xe9 build/stm32f4xx_hal_msp.c.o
 .debug_abbrev  0x00002b7b      0x294 build/gfx.c.o
 .debug_abbrev  0x00002e0f      0x284 build/ioctl.c.o
 .debug_abbrev  0x00003093      0x268 build/lcd_fsmc_if.c.o
 .debug_abbrev  0x000032fb      0x2c0 build/ILI948x_drv.c.o
 .debug_abbrev  0x000035bb       0x5d build/font_sinclair_8x8.c.o
 .debug_abbrev  0x00003618       0x5d build/font_system_8x12.c.o
 .debug_abbrev  0x00003675      0x39a build/gui.c.o
 .debug_abbrev  0x00003a0f      0x26e build/panel_menu.c.o
 .debug_abbrev  0x00003c7d      0x35a build/panel.c.o
 .debug_abbrev  0x00003fd7      0x39d build/step_edit.c.o
 .debug_abbrev  0x00004374      0x1e8 build/song_edit.c.o
 .debug_abbrev  0x0000455c      0x276 build/config_store.c.o
 .debug_abbrev  0x000047d2      0x1bb build/midi_stream.c.o
 .debug_abbrev  0x0000498d      0x176 build/midi_utils.c.o
 .debug_abbrev  0x00004b03      0x161 build/log.c.o
 .debug_abbrev  0x00004c64       0x8b build/time_utils.c.o
 .debug_abbrev  0x00004cef      0x1ae build/panel_utils.c.o
 .debug_abbrev  0x00004e9d      0x11e build/state_change.c.o
 .debug_abbrev  0x00004fbb       0xd9 build/seq_utils.c.o
 .debug_abbrev  0x00005094      0x101 build/system_stm32f4xx.c.o
 .debug_abbrev  0x00005195       0x56 build/lcd_drv.c.o
 .debug_abbrev  0x000051eb      0x2aa build/spi_flash.c.o
 .debug_abbrev  0x00005495      0x20d build/iface_midi_router.c.o
 .debug_abbrev  0x000056a2      0x18b build/iface_panel.c.o
 .debug_abbrev  0x0000582d      0x377 build/usbh_midi.c.o
 .debug_abbrev  0x00005ba4      0x3a3 build/usbh_conf.c.o
 .debug_abbrev  0x00005f47       0xb0 build/delay.c.o
 .debug_abbrev  0x00005ff7      0x1d2 build/metronome.c.o
 .debug_abbrev  0x000061c9      0x23e build/sysex.c.o
 .debug_abbrev  0x00006407      0x158 build/midi_ctrl.c.o
 .debug_abbrev  0x0000655f      0x1e2 build/pattern.c.o
 .debug_abbrev  0x00006741      0x36f build/arp.c.o
 .debug_abbrev  0x00006ab0      0x3db build/seq_ctrl.c.o
 .debug_abbrev  0x00006e8b      0x1ea build/arp_progs.c.o
 .debug_abbrev  0x00007075      0x2e2 build/clock.c.o
 .debug_abbrev  0x00007357      0x212 build/clock_out.c.o
 .debug_abbrev  0x00007569       0xc8 build/scale.c.o
 .debug_abbrev  0x00007631      0x42f build/seq_engine.c.o
 .debug_abbrev  0x00007a60      0x2d7 build/song.c.o
 .debug_abbrev  0x00007d37      0x2a9 build/outproc.c.o
 .debug_abbrev  0x00007fe0      0x17f build/spi_callbacks.c.o
 .debug_abbrev  0x0000815f      0x22e build/ext_flash.c.o
 .debug_abbrev  0x0000838d      0x226 build/din_midi.c.o
 .debug_abbrev  0x000085b3      0x158 build/stm32f4xx_hal_dma_ex.c.o
 .debug_abbrev  0x0000870b       0x4b build/stm32f4xx_hal_sai.c.o
 .debug_abbrev  0x00008756      0x244 build/stm32f4xx_hal_timebase_tim_template.c.o
 .debug_abbrev  0x0000899a       0x4b build/stm32f4xx_hal_fmpi2c.c.o
 .debug_abbrev  0x000089e5      0x2eb build/stm32f4xx_hal_hcd.c.o
 .debug_abbrev  0x00008cd0       0x4b build/stm32f4xx_hal_nor.c.o
 .debug_abbrev  0x00008d1b       0x4b build/stm32f4xx_hal_smartcard.c.o
 .debug_abbrev  0x00008d66       0x4b build/stm32f4xx_hal_hash_ex.c.o
 .debug_abbrev  0x00008db1      0x286 build/stm32f4xx_hal_adc_ex.c.o
 .debug_abbrev  0x00009037      0x33c build/stm32f4xx_hal_spi.c.o
 .debug_abbrev  0x00009373      0x27a build/stm32f4xx_hal_tim_ex.c.o
 .debug_abbrev  0x000095ed       0x4b build/stm32f4xx_hal_ltdc.c.o
 .debug_abbrev  0x00009638       0x4b build/stm32f4xx_hal_qspi.c.o
 .debug_abbrev  0x00009683       0x4b build/stm32f4xx_hal_nand.c.o
 .debug_abbrev  0x000096ce      0x325 build/stm32f4xx_hal_tim.c.o
 .debug_abbrev  0x000099f3       0x4b build/stm32f4xx_hal_dsi.c.o
 .debug_abbrev  0x00009a3e       0x4b build/stm32f4xx_hal_cryp_ex.c.o
 .debug_abbrev  0x00009a89       0x4b build/stm32f4xx_ll_fmc.c.o
 .debug_abbrev  0x00009ad4      0x318 build/stm32f4xx_hal_pcd.c.o
 .debug_abbrev  0x00009dec      0x1c6 build/stm32f4xx_hal_gpio.c.o
 .debug_abbrev  0x00009fb2      0x16d build/stm32f4xx_hal_pcd_ex.c.o
 .debug_abbrev  0x0000a11f      0x1fe build/stm32f4xx_hal_pwr.c.o
 .debug_abbrev  0x0000a31d       0x4b build/stm32f4xx_hal_dac.c.o
 .debug_abbrev  0x0000a368       0x4b build/stm32f4xx_hal_i2c_ex.c.o
 .debug_abbrev  0x0000a3b3       0x4b build/stm32f4xx_hal_can.c.o
 .debug_abbrev  0x0000a3fe      0x235 build/stm32f4xx_hal_rng.c.o
 .debug_abbrev  0x0000a633      0x2d6 build/stm32f4xx_hal_uart.c.o
 .debug_abbrev  0x0000a909       0x4b build/stm32f4xx_hal_fmpi2c_ex.c.o
 .debug_abbrev  0x0000a954      0x2d2 build/stm32f4xx_hal_flash_ex.c.o
 .debug_abbrev  0x0000ac26       0x4b build/stm32f4xx_hal_ltdc_ex.c.o
 .debug_abbrev  0x0000ac71      0x1ee build/stm32f4xx_hal_sram.c.o
 .debug_abbrev  0x0000ae5f      0x365 build/stm32f4xx_hal_sd.c.o
 .debug_abbrev  0x0000b1c4       0x4b build/stm32f4xx_hal_pccard.c.o
 .debug_abbrev  0x0000b20f       0x4b build/stm32f4xx_hal_hash.c.o
 .debug_abbrev  0x0000b25a      0x12f build/stm32f4xx_hal_dcmi_ex.c.o
 .debug_abbrev  0x0000b389      0x17c build/stm32f4xx_ll_sdmmc.c.o
 .debug_abbrev  0x0000b505      0x25a build/stm32f4xx_hal.c.o
 .debug_abbrev  0x0000b75f      0x29a build/stm32f4xx_hal_i2s.c.o
 .debug_abbrev  0x0000b9f9       0x4b build/stm32f4xx_hal_wwdg.c.o
 .debug_abbrev  0x0000ba44       0x4b build/stm32f4xx_hal_iwdg.c.o
 .debug_abbrev  0x0000ba8f      0x1c4 build/stm32f4xx_hal_pwr_ex.c.o
 .debug_abbrev  0x0000bc53       0x4b build/stm32f4xx_hal_eth.c.o
 .debug_abbrev  0x0000bc9e       0x4b build/stm32f4xx_hal_dma2d.c.o
 .debug_abbrev  0x0000bce9       0x4b build/stm32f4xx_hal_crc.c.o
 .debug_abbrev  0x0000bd34       0x4b build/stm32f4xx_hal_spdifrx.c.o
 .debug_abbrev  0x0000bd7f       0x4b build/stm32f4xx_hal_rtc_ex.c.o
 .debug_abbrev  0x0000bdca       0x4b build/stm32f4xx_hal_cec.c.o
 .debug_abbrev  0x0000be15      0x26c build/stm32f4xx_hal_dcmi.c.o
 .debug_abbrev  0x0000c081       0x4b build/stm32f4xx_hal_lptim.c.o
 .debug_abbrev  0x0000c0cc       0x4b build/stm32f4xx_hal_irda.c.o
 .debug_abbrev  0x0000c117      0x18d build/stm32f4xx_ll_fsmc.c.o
 .debug_abbrev  0x0000c2a4      0x2f4 build/stm32f4xx_hal_i2s_ex.c.o
 .debug_abbrev  0x0000c598      0x333 build/stm32f4xx_ll_usb.c.o
 .debug_abbrev  0x0000c8cb       0x4b build/stm32f4xx_hal_sdram.c.o
 .debug_abbrev  0x0000c916      0x204 build/stm32f4xx_hal_rcc_ex.c.o
 .debug_abbrev  0x0000cb1a       0x4b build/stm32f4xx_hal_sai_ex.c.o
 .debug_abbrev  0x0000cb65      0x2ac build/stm32f4xx_hal_dma.c.o
 .debug_abbrev  0x0000ce11      0x343 build/stm32f4xx_hal_rcc.c.o
 .debug_abbrev  0x0000d154      0x2e6 build/stm32f4xx_hal_cortex.c.o
 .debug_abbrev  0x0000d43a      0x2ed build/stm32f4xx_hal_i2c.c.o
 .debug_abbrev  0x0000d727       0x4b build/stm32f4xx_hal_rtc.c.o
 .debug_abbrev  0x0000d772       0x4b build/stm32f4xx_hal_cryp.c.o
 .debug_abbrev  0x0000d7bd       0x4b build/stm32f4xx_hal_dac_ex.c.o
 .debug_abbrev  0x0000d808      0x2ab build/stm32f4xx_hal_flash.c.o
 .debug_abbrev  0x0000dab3      0x2a0 build/stm32f4xx_hal_adc.c.o
 .debug_abbrev  0x0000dd53       0x4b build/stm32f4xx_hal_flash_ramfunc.c.o
 .debug_abbrev  0x0000dd9e      0x305 build/stm32f4xx_hal_usart.c.o

.debug_loc      0x00000000    0x3b370
 .debug_loc     0x00000000      0x184 build/usbh_pipes.c.o
 .debug_loc     0x00000184      0xb50 build/usbh_ctlreq.c.o
 .debug_loc     0x00000cd4      0x52d build/usbh_ioreq.c.o
 .debug_loc     0x00001201      0x837 build/usbh_core.c.o
 .debug_loc     0x00001a38      0x23c build/usbd_ioreq.c.o
 .debug_loc     0x00001c74      0x769 build/usbd_core.c.o
 .debug_loc     0x000023dd      0xab9 build/usbd_ctlreq.c.o
 .debug_loc     0x00002e96      0x721 build/usbd_midi.c.o
 .debug_loc     0x000035b7      0x6d0 build/usbd_conf.c.o
 .debug_loc     0x00003c87       0x4f build/power_ctrl.c.o
 .debug_loc     0x00003cd6       0x13 build/main.c.o
 .debug_loc     0x00003ce9      0x23d build/switch_filter.c.o
 .debug_loc     0x00003f26      0xc60 build/panel_if.c.o
 .debug_loc     0x00004b86      0x1b7 build/analog_out.c.o
 .debug_loc     0x00004d3d      0x1ce build/debug.c.o
 .debug_loc     0x00004f0b     0x12a9 build/cvproc.c.o
 .debug_loc     0x000061b4      0x3cc build/gfx.c.o
 .debug_loc     0x00006580       0x4e build/ioctl.c.o
 .debug_loc     0x000065ce      0x2e2 build/lcd_fsmc_if.c.o
 .debug_loc     0x000068b0      0x6d5 build/ILI948x_drv.c.o
 .debug_loc     0x00006f85     0x34dd build/gui.c.o
 .debug_loc     0x0000a462      0xc0c build/panel_menu.c.o
 .debug_loc     0x0000b06e     0x16a4 build/panel.c.o
 .debug_loc     0x0000c712      0xd51 build/step_edit.c.o
 .debug_loc     0x0000d463      0x2cd build/song_edit.c.o
 .debug_loc     0x0000d730      0x2f5 build/config_store.c.o
 .debug_loc     0x0000da25      0x93b build/midi_stream.c.o
 .debug_loc     0x0000e360      0x417 build/midi_utils.c.o
 .debug_loc     0x0000e777       0xd6 build/log.c.o
 .debug_loc     0x0000e84d     0x118b build/panel_utils.c.o
 .debug_loc     0x0000f9d8      0x2b9 build/state_change.c.o
 .debug_loc     0x0000fc91      0x1ff build/seq_utils.c.o
 .debug_loc     0x0000fe90      0x13f build/system_stm32f4xx.c.o
 .debug_loc     0x0000ffcf      0x52a build/spi_flash.c.o
 .debug_loc     0x000104f9      0x64b build/iface_midi_router.c.o
 .debug_loc     0x00010b44      0x690 build/iface_panel.c.o
 .debug_loc     0x000111d4      0x352 build/usbh_midi.c.o
 .debug_loc     0x00011526      0x51f build/usbh_conf.c.o
 .debug_loc     0x00011a45       0x5b build/metronome.c.o
 .debug_loc     0x00011aa0      0x3d6 build/sysex.c.o
 .debug_loc     0x00011e76      0xb1a build/midi_ctrl.c.o
 .debug_loc     0x00012990      0x5a8 build/pattern.c.o
 .debug_loc     0x00012f38     0x1381 build/arp.c.o
 .debug_loc     0x000142b9     0x2d8b build/seq_ctrl.c.o
 .debug_loc     0x00017044     0x1427 build/arp_progs.c.o
 .debug_loc     0x0001846b      0x135 build/clock.c.o
 .debug_loc     0x000185a0      0x42e build/clock_out.c.o
 .debug_loc     0x000189ce      0x243 build/scale.c.o
 .debug_loc     0x00018c11     0x2a7d build/seq_engine.c.o
 .debug_loc     0x0001b68e     0x5f31 build/song.c.o
 .debug_loc     0x000215bf      0x612 build/outproc.c.o
 .debug_loc     0x00021bd1      0x21f build/spi_callbacks.c.o
 .debug_loc     0x00021df0      0x283 build/ext_flash.c.o
 .debug_loc     0x00022073       0xe6 build/din_midi.c.o
 .debug_loc     0x00022159      0x246 build/stm32f4xx_hal_dma_ex.c.o
 .debug_loc     0x0002239f       0xd1 build/stm32f4xx_hal_timebase_tim_template.c.o
 .debug_loc     0x00022470      0xcba build/stm32f4xx_hal_hcd.c.o
 .debug_loc     0x0002312a      0x79d build/stm32f4xx_hal_adc_ex.c.o
 .debug_loc     0x000238c7     0x1581 build/stm32f4xx_hal_spi.c.o
 .debug_loc     0x00024e48     0x1353 build/stm32f4xx_hal_tim_ex.c.o
 .debug_loc     0x0002619b     0x4906 build/stm32f4xx_hal_tim.c.o
 .debug_loc     0x0002aaa1      0xec8 build/stm32f4xx_hal_pcd.c.o
 .debug_loc     0x0002b969      0x4a5 build/stm32f4xx_hal_gpio.c.o
 .debug_loc     0x0002be0e       0xf2 build/stm32f4xx_hal_pcd_ex.c.o
 .debug_loc     0x0002bf00       0xd0 build/stm32f4xx_hal_pwr.c.o
 .debug_loc     0x0002bfd0      0x33e build/stm32f4xx_hal_rng.c.o
 .debug_loc     0x0002c30e      0xfc3 build/stm32f4xx_hal_uart.c.o
 .debug_loc     0x0002d2d1      0x48b build/stm32f4xx_hal_flash_ex.c.o
 .debug_loc     0x0002d75c      0x84d build/stm32f4xx_hal_sram.c.o
 .debug_loc     0x0002dfa9     0x278a build/stm32f4xx_hal_sd.c.o
 .debug_loc     0x00030733       0x4d build/stm32f4xx_hal_dcmi_ex.c.o
 .debug_loc     0x00030780      0x2d5 build/stm32f4xx_ll_sdmmc.c.o
 .debug_loc     0x00030a55       0x90 build/stm32f4xx_hal.c.o
 .debug_loc     0x00030ae5      0xe88 build/stm32f4xx_hal_i2s.c.o
 .debug_loc     0x0003196d       0xeb build/stm32f4xx_hal_pwr_ex.c.o
 .debug_loc     0x00031a58      0x4c3 build/stm32f4xx_hal_dcmi.c.o
 .debug_loc     0x00031f1b      0x781 build/stm32f4xx_ll_fsmc.c.o
 .debug_loc     0x0003269c     0x1125 build/stm32f4xx_hal_i2s_ex.c.o
 .debug_loc     0x000337c1     0x1af2 build/stm32f4xx_ll_usb.c.o
 .debug_loc     0x000352b3      0x17f build/stm32f4xx_hal_rcc_ex.c.o
 .debug_loc     0x00035432      0x5eb build/stm32f4xx_hal_dma.c.o
 .debug_loc     0x00035a1d      0x60d build/stm32f4xx_hal_rcc.c.o
 .debug_loc     0x0003602a      0x500 build/stm32f4xx_hal_cortex.c.o
 .debug_loc     0x0003652a     0x3261 build/stm32f4xx_hal_i2c.c.o
 .debug_loc     0x0003978b      0x323 build/stm32f4xx_hal_flash.c.o
 .debug_loc     0x00039aae      0x871 build/stm32f4xx_hal_adc.c.o
 .debug_loc     0x0003a31f     0x1051 build/stm32f4xx_hal_usart.c.o

.debug_aranges  0x00000000      0xee0
 .debug_aranges
                0x00000000       0x20 build/usbh_pipes.c.o
 .debug_aranges
                0x00000020       0x20 build/usbh_ctlreq.c.o
 .debug_aranges
                0x00000040       0x20 build/usbh_ioreq.c.o
 .debug_aranges
                0x00000060       0x20 build/usbh_core.c.o
 .debug_aranges
                0x00000080       0x20 build/usbd_ioreq.c.o
 .debug_aranges
                0x000000a0       0x20 build/usbd_core.c.o
 .debug_aranges
                0x000000c0       0x20 build/usbd_ctlreq.c.o
 .debug_aranges
                0x000000e0       0x20 build/usbd_midi.c.o
 .debug_aranges
                0x00000100       0x20 build/usbd_conf.c.o
 .debug_aranges
                0x00000120       0x20 build/power_ctrl.c.o
 .debug_aranges
                0x00000140       0x20 build/stm32f4xx_it.c.o
 .debug_aranges
                0x00000160       0x28 build/main.c.o
 .debug_aranges
                0x00000188       0x20 build/switch_filter.c.o
 .debug_aranges
                0x000001a8       0x20 build/panel_if.c.o
 .debug_aranges
                0x000001c8       0x20 build/analog_out.c.o
 .debug_aranges
                0x000001e8       0x20 build/debug.c.o
 .debug_aranges
                0x00000208       0x20 build/cvproc.c.o
 .debug_aranges
                0x00000228       0x20 build/stm32f4xx_hal_msp.c.o
 .debug_aranges
                0x00000248       0x20 build/gfx.c.o
 .debug_aranges
                0x00000268       0x20 build/ioctl.c.o
 .debug_aranges
                0x00000288       0x20 build/lcd_fsmc_if.c.o
 .debug_aranges
                0x000002a8       0x20 build/ILI948x_drv.c.o
 .debug_aranges
                0x000002c8       0x18 build/font_sinclair_8x8.c.o
 .debug_aranges
                0x000002e0       0x18 build/font_system_8x12.c.o
 .debug_aranges
                0x000002f8       0x20 build/gui.c.o
 .debug_aranges
                0x00000318       0x20 build/panel_menu.c.o
 .debug_aranges
                0x00000338       0x20 build/panel.c.o
 .debug_aranges
                0x00000358       0x20 build/step_edit.c.o
 .debug_aranges
                0x00000378       0x20 build/song_edit.c.o
 .debug_aranges
                0x00000398       0x20 build/config_store.c.o
 .debug_aranges
                0x000003b8       0x20 build/midi_stream.c.o
 .debug_aranges
                0x000003d8       0x20 build/midi_utils.c.o
 .debug_aranges
                0x000003f8       0x20 build/log.c.o
 .debug_aranges
                0x00000418       0x20 build/time_utils.c.o
 .debug_aranges
                0x00000438       0x20 build/panel_utils.c.o
 .debug_aranges
                0x00000458       0x20 build/state_change.c.o
 .debug_aranges
                0x00000478       0x20 build/seq_utils.c.o
 .debug_aranges
                0x00000498       0x20 build/system_stm32f4xx.c.o
 .debug_aranges
                0x000004b8       0x18 build/lcd_drv.c.o
 .debug_aranges
                0x000004d0       0x20 build/spi_flash.c.o
 .debug_aranges
                0x000004f0       0x20 build/iface_midi_router.c.o
 .debug_aranges
                0x00000510       0x20 build/iface_panel.c.o
 .debug_aranges
                0x00000530       0x20 build/usbh_midi.c.o
 .debug_aranges
                0x00000550       0x20 build/usbh_conf.c.o
 .debug_aranges
                0x00000570       0x20 build/delay.c.o
 .debug_aranges
                0x00000590       0x20 build/metronome.c.o
 .debug_aranges
                0x000005b0       0x20 build/sysex.c.o
 .debug_aranges
                0x000005d0       0x20 build/midi_ctrl.c.o
 .debug_aranges
                0x000005f0       0x20 build/pattern.c.o
 .debug_aranges
                0x00000610       0x20 build/arp.c.o
 .debug_aranges
                0x00000630       0x20 build/seq_ctrl.c.o
 .debug_aranges
                0x00000650       0x20 build/arp_progs.c.o
 .debug_aranges
                0x00000670       0x20 build/clock.c.o
 .debug_aranges
                0x00000690       0x20 build/clock_out.c.o
 .debug_aranges
                0x000006b0       0x20 build/scale.c.o
 .debug_aranges
                0x000006d0       0x20 build/seq_engine.c.o
 .debug_aranges
                0x000006f0       0x20 build/song.c.o
 .debug_aranges
                0x00000710       0x20 build/outproc.c.o
 .debug_aranges
                0x00000730       0x20 build/spi_callbacks.c.o
 .debug_aranges
                0x00000750       0x20 build/ext_flash.c.o
 .debug_aranges
                0x00000770       0x20 build/din_midi.c.o
 .debug_aranges
                0x00000790       0x20 build/stm32f4xx_hal_dma_ex.c.o
 .debug_aranges
                0x000007b0       0x18 build/stm32f4xx_hal_sai.c.o
 .debug_aranges
                0x000007c8       0x20 build/stm32f4xx_hal_timebase_tim_template.c.o
 .debug_aranges
                0x000007e8       0x18 build/stm32f4xx_hal_fmpi2c.c.o
 .debug_aranges
                0x00000800       0x20 build/stm32f4xx_hal_hcd.c.o
 .debug_aranges
                0x00000820       0x18 build/stm32f4xx_hal_nor.c.o
 .debug_aranges
                0x00000838       0x18 build/stm32f4xx_hal_smartcard.c.o
 .debug_aranges
                0x00000850       0x18 build/stm32f4xx_hal_hash_ex.c.o
 .debug_aranges
                0x00000868       0x20 build/stm32f4xx_hal_adc_ex.c.o
 .debug_aranges
                0x00000888       0x20 build/stm32f4xx_hal_spi.c.o
 .debug_aranges
                0x000008a8       0x20 build/stm32f4xx_hal_tim_ex.c.o
 .debug_aranges
                0x000008c8       0x18 build/stm32f4xx_hal_ltdc.c.o
 .debug_aranges
                0x000008e0       0x18 build/stm32f4xx_hal_qspi.c.o
 .debug_aranges
                0x000008f8       0x18 build/stm32f4xx_hal_nand.c.o
 .debug_aranges
                0x00000910       0x20 build/stm32f4xx_hal_tim.c.o
 .debug_aranges
                0x00000930       0x18 build/stm32f4xx_hal_dsi.c.o
 .debug_aranges
                0x00000948       0x18 build/stm32f4xx_hal_cryp_ex.c.o
 .debug_aranges
                0x00000960       0x18 build/stm32f4xx_ll_fmc.c.o
 .debug_aranges
                0x00000978       0x20 build/stm32f4xx_hal_pcd.c.o
 .debug_aranges
                0x00000998       0x20 build/stm32f4xx_hal_gpio.c.o
 .debug_aranges
                0x000009b8       0x20 build/stm32f4xx_hal_pcd_ex.c.o
 .debug_aranges
                0x000009d8       0x20 build/stm32f4xx_hal_pwr.c.o
 .debug_aranges
                0x000009f8       0x18 build/stm32f4xx_hal_dac.c.o
 .debug_aranges
                0x00000a10       0x18 build/stm32f4xx_hal_i2c_ex.c.o
 .debug_aranges
                0x00000a28       0x18 build/stm32f4xx_hal_can.c.o
 .debug_aranges
                0x00000a40       0x20 build/stm32f4xx_hal_rng.c.o
 .debug_aranges
                0x00000a60       0x20 build/stm32f4xx_hal_uart.c.o
 .debug_aranges
                0x00000a80       0x18 build/stm32f4xx_hal_fmpi2c_ex.c.o
 .debug_aranges
                0x00000a98       0x20 build/stm32f4xx_hal_flash_ex.c.o
 .debug_aranges
                0x00000ab8       0x18 build/stm32f4xx_hal_ltdc_ex.c.o
 .debug_aranges
                0x00000ad0       0x20 build/stm32f4xx_hal_sram.c.o
 .debug_aranges
                0x00000af0       0x20 build/stm32f4xx_hal_sd.c.o
 .debug_aranges
                0x00000b10       0x18 build/stm32f4xx_hal_pccard.c.o
 .debug_aranges
                0x00000b28       0x18 build/stm32f4xx_hal_hash.c.o
 .debug_aranges
                0x00000b40       0x20 build/stm32f4xx_hal_dcmi_ex.c.o
 .debug_aranges
                0x00000b60       0x20 build/stm32f4xx_ll_sdmmc.c.o
 .debug_aranges
                0x00000b80       0x20 build/stm32f4xx_hal.c.o
 .debug_aranges
                0x00000ba0       0x20 build/stm32f4xx_hal_i2s.c.o
 .debug_aranges
                0x00000bc0       0x18 build/stm32f4xx_hal_wwdg.c.o
 .debug_aranges
                0x00000bd8       0x18 build/stm32f4xx_hal_iwdg.c.o
 .debug_aranges
                0x00000bf0       0x20 build/stm32f4xx_hal_pwr_ex.c.o
 .debug_aranges
                0x00000c10       0x18 build/stm32f4xx_hal_eth.c.o
 .debug_aranges
                0x00000c28       0x18 build/stm32f4xx_hal_dma2d.c.o
 .debug_aranges
                0x00000c40       0x18 build/stm32f4xx_hal_crc.c.o
 .debug_aranges
                0x00000c58       0x18 build/stm32f4xx_hal_spdifrx.c.o
 .debug_aranges
                0x00000c70       0x18 build/stm32f4xx_hal_rtc_ex.c.o
 .debug_aranges
                0x00000c88       0x18 build/stm32f4xx_hal_cec.c.o
 .debug_aranges
                0x00000ca0       0x20 build/stm32f4xx_hal_dcmi.c.o
 .debug_aranges
                0x00000cc0       0x18 build/stm32f4xx_hal_lptim.c.o
 .debug_aranges
                0x00000cd8       0x18 build/stm32f4xx_hal_irda.c.o
 .debug_aranges
                0x00000cf0       0x20 build/stm32f4xx_ll_fsmc.c.o
 .debug_aranges
                0x00000d10       0x20 build/stm32f4xx_hal_i2s_ex.c.o
 .debug_aranges
                0x00000d30       0x20 build/stm32f4xx_ll_usb.c.o
 .debug_aranges
                0x00000d50       0x18 build/stm32f4xx_hal_sdram.c.o
 .debug_aranges
                0x00000d68       0x20 build/stm32f4xx_hal_rcc_ex.c.o
 .debug_aranges
                0x00000d88       0x18 build/stm32f4xx_hal_sai_ex.c.o
 .debug_aranges
                0x00000da0       0x20 build/stm32f4xx_hal_dma.c.o
 .debug_aranges
                0x00000dc0       0x20 build/stm32f4xx_hal_rcc.c.o
 .debug_aranges
                0x00000de0       0x20 build/stm32f4xx_hal_cortex.c.o
 .debug_aranges
                0x00000e00       0x20 build/stm32f4xx_hal_i2c.c.o
 .debug_aranges
                0x00000e20       0x18 build/stm32f4xx_hal_rtc.c.o
 .debug_aranges
                0x00000e38       0x18 build/stm32f4xx_hal_cryp.c.o
 .debug_aranges
                0x00000e50       0x18 build/stm32f4xx_hal_dac_ex.c.o
 .debug_aranges
                0x00000e68       0x20 build/stm32f4xx_hal_flash.c.o
 .debug_aranges
                0x00000e88       0x20 build/stm32f4xx_hal_adc.c.o
 .debug_aranges
                0x00000ea8       0x18 build/stm32f4xx_hal_flash_ramfunc.c.o
 .debug_aranges
                0x00000ec0       0x20 build/stm32f4xx_hal_usart.c.o

.debug_line     0x00000000    0x196b4
 .debug_line    0x00000000      0x181 build/usbh_pipes.c.o
 .debug_line    0x00000181      0x35e build/usbh_ctlreq.c.o
 .debug_line    0x000004df      0x1ac build/usbh_ioreq.c.o
 .debug_line    0x0000068b      0x348 build/usbh_core.c.o
 .debug_line    0x000009d3      0x198 build/usbd_ioreq.c.o
 .debug_line    0x00000b6b      0x299 build/usbd_core.c.o
 .debug_line    0x00000e04      0x2ac build/usbd_ctlreq.c.o
 .debug_line    0x000010b0      0x37a build/usbd_midi.c.o
 .debug_line    0x0000142a      0x359 build/usbd_conf.c.o
 .debug_line    0x00001783      0x23c build/power_ctrl.c.o
 .debug_line    0x000019bf      0x2af build/stm32f4xx_it.c.o
 .debug_line    0x00001c6e      0x395 build/main.c.o
 .debug_line    0x00002003      0x1d4 build/switch_filter.c.o
 .debug_line    0x000021d7      0x3f5 build/panel_if.c.o
 .debug_line    0x000025cc      0x2a9 build/analog_out.c.o
 .debug_line    0x00002875      0x200 build/debug.c.o
 .debug_line    0x00002a75      0x491 build/cvproc.c.o
 .debug_line    0x00002f06      0x175 build/stm32f4xx_hal_msp.c.o
 .debug_line    0x0000307b      0x1ea build/gfx.c.o
 .debug_line    0x00003265      0x253 build/ioctl.c.o
 .debug_line    0x000034b8      0x2d1 build/lcd_fsmc_if.c.o
 .debug_line    0x00003789      0x3f4 build/ILI948x_drv.c.o
 .debug_line    0x00003b7d       0xc5 build/font_sinclair_8x8.c.o
 .debug_line    0x00003c42       0xc4 build/font_system_8x12.c.o
 .debug_line    0x00003d06      0x9e8 build/gui.c.o
 .debug_line    0x000046ee      0x583 build/panel_menu.c.o
 .debug_line    0x00004c71      0x75d build/panel.c.o
 .debug_line    0x000053ce      0x49c build/step_edit.c.o
 .debug_line    0x0000586a      0x169 build/song_edit.c.o
 .debug_line    0x000059d3      0x24e build/config_store.c.o
 .debug_line    0x00005c21      0x2b7 build/midi_stream.c.o
 .debug_line    0x00005ed8      0x225 build/midi_utils.c.o
 .debug_line    0x000060fd      0x104 build/log.c.o
 .debug_line    0x00006201       0xe1 build/time_utils.c.o
 .debug_line    0x000062e2      0x21a build/panel_utils.c.o
 .debug_line    0x000064fc       0x9c build/state_change.c.o
 .debug_line    0x00006598       0x79 build/seq_utils.c.o
 .debug_line    0x00006611      0x167 build/system_stm32f4xx.c.o
 .debug_line    0x00006778       0xb6 build/lcd_drv.c.o
 .debug_line    0x0000682e      0x3b2 build/spi_flash.c.o
 .debug_line    0x00006be0      0x34d build/iface_midi_router.c.o
 .debug_line    0x00006f2d      0x20c build/iface_panel.c.o
 .debug_line    0x00007139      0x42c build/usbh_midi.c.o
 .debug_line    0x00007565      0x30c build/usbh_conf.c.o
 .debug_line    0x00007871       0xf2 build/delay.c.o
 .debug_line    0x00007963      0x1a9 build/metronome.c.o
 .debug_line    0x00007b0c      0x372 build/sysex.c.o
 .debug_line    0x00007e7e      0x1b3 build/midi_ctrl.c.o
 .debug_line    0x00008031      0x24e build/pattern.c.o
 .debug_line    0x0000827f      0x4fa build/arp.c.o
 .debug_line    0x00008779      0x9f6 build/seq_ctrl.c.o
 .debug_line    0x0000916f      0x58e build/arp_progs.c.o
 .debug_line    0x000096fd      0x29b build/clock.c.o
 .debug_line    0x00009998      0x2a4 build/clock_out.c.o
 .debug_line    0x00009c3c       0xf4 build/scale.c.o
 .debug_line    0x00009d30      0xc3b build/seq_engine.c.o
 .debug_line    0x0000a96b      0xa3f build/song.c.o
 .debug_line    0x0000b3aa      0x266 build/outproc.c.o
 .debug_line    0x0000b610      0x271 build/spi_callbacks.c.o
 .debug_line    0x0000b881      0x24a build/ext_flash.c.o
 .debug_line    0x0000bacb      0x366 build/din_midi.c.o
 .debug_line    0x0000be31      0x24b build/stm32f4xx_hal_dma_ex.c.o
 .debug_line    0x0000c07c       0xc7 build/stm32f4xx_hal_sai.c.o
 .debug_line    0x0000c143      0x23e build/stm32f4xx_hal_timebase_tim_template.c.o
 .debug_line    0x0000c381       0xc7 build/stm32f4xx_hal_fmpi2c.c.o
 .debug_line    0x0000c448      0x526 build/stm32f4xx_hal_hcd.c.o
 .debug_line    0x0000c96e       0xc7 build/stm32f4xx_hal_nor.c.o
 .debug_line    0x0000ca35       0xc7 build/stm32f4xx_hal_smartcard.c.o
 .debug_line    0x0000cafc       0xc7 build/stm32f4xx_hal_hash_ex.c.o
 .debug_line    0x0000cbc3      0x578 build/stm32f4xx_hal_adc_ex.c.o
 .debug_line    0x0000d13b      0x8b1 build/stm32f4xx_hal_spi.c.o
 .debug_line    0x0000d9ec      0x773 build/stm32f4xx_hal_tim_ex.c.o
 .debug_line    0x0000e15f       0xc7 build/stm32f4xx_hal_ltdc.c.o
 .debug_line    0x0000e226       0xc7 build/stm32f4xx_hal_qspi.c.o
 .debug_line    0x0000e2ed       0xc7 build/stm32f4xx_hal_nand.c.o
 .debug_line    0x0000e3b4     0x1332 build/stm32f4xx_hal_tim.c.o
 .debug_line    0x0000f6e6       0xc7 build/stm32f4xx_hal_dsi.c.o
 .debug_line    0x0000f7ad       0xc7 build/stm32f4xx_hal_cryp_ex.c.o
 .debug_line    0x0000f874       0xc7 build/stm32f4xx_ll_fmc.c.o
 .debug_line    0x0000f93b      0x614 build/stm32f4xx_hal_pcd.c.o
 .debug_line    0x0000ff4f      0x353 build/stm32f4xx_hal_gpio.c.o
 .debug_line    0x000102a2      0x1f0 build/stm32f4xx_hal_pcd_ex.c.o
 .debug_line    0x00010492      0x259 build/stm32f4xx_hal_pwr.c.o
 .debug_line    0x000106eb       0xc7 build/stm32f4xx_hal_dac.c.o
 .debug_line    0x000107b2       0xc7 build/stm32f4xx_hal_i2c_ex.c.o
 .debug_line    0x00010879       0xc7 build/stm32f4xx_hal_can.c.o
 .debug_line    0x00010940      0x2f6 build/stm32f4xx_hal_rng.c.o
 .debug_line    0x00010c36      0x8c5 build/stm32f4xx_hal_uart.c.o
 .debug_line    0x000114fb       0xc7 build/stm32f4xx_hal_fmpi2c_ex.c.o
 .debug_line    0x000115c2      0x379 build/stm32f4xx_hal_flash_ex.c.o
 .debug_line    0x0001193b       0xc7 build/stm32f4xx_hal_ltdc_ex.c.o
 .debug_line    0x00011a02      0x45d build/stm32f4xx_hal_sram.c.o
 .debug_line    0x00011e5f      0xb67 build/stm32f4xx_hal_sd.c.o
 .debug_line    0x000129c6       0xc7 build/stm32f4xx_hal_pccard.c.o
 .debug_line    0x00012a8d       0xc7 build/stm32f4xx_hal_hash.c.o
 .debug_line    0x00012b54      0x207 build/stm32f4xx_hal_dcmi_ex.c.o
 .debug_line    0x00012d5b      0x218 build/stm32f4xx_ll_sdmmc.c.o
 .debug_line    0x00012f73      0x241 build/stm32f4xx_hal.c.o
 .debug_line    0x000131b4      0x63f build/stm32f4xx_hal_i2s.c.o
 .debug_line    0x000137f3       0xc7 build/stm32f4xx_hal_wwdg.c.o
 .debug_line    0x000138ba       0xc7 build/stm32f4xx_hal_iwdg.c.o
 .debug_line    0x00013981      0x210 build/stm32f4xx_hal_pwr_ex.c.o
 .debug_line    0x00013b91       0xc7 build/stm32f4xx_hal_eth.c.o
 .debug_line    0x00013c58       0xc7 build/stm32f4xx_hal_dma2d.c.o
 .debug_line    0x00013d1f       0xc7 build/stm32f4xx_hal_crc.c.o
 .debug_line    0x00013de6       0xc7 build/stm32f4xx_hal_spdifrx.c.o
 .debug_line    0x00013ead       0xc7 build/stm32f4xx_hal_rtc_ex.c.o
 .debug_line    0x00013f74       0xc7 build/stm32f4xx_hal_cec.c.o
 .debug_line    0x0001403b      0x48a build/stm32f4xx_hal_dcmi.c.o
 .debug_line    0x000144c5       0xc7 build/stm32f4xx_hal_lptim.c.o
 .debug_line    0x0001458c       0xc7 build/stm32f4xx_hal_irda.c.o
 .debug_line    0x00014653      0x3d4 build/stm32f4xx_ll_fsmc.c.o
 .debug_line    0x00014a27      0x727 build/stm32f4xx_hal_i2s_ex.c.o
 .debug_line    0x0001514e      0x64c build/stm32f4xx_ll_usb.c.o
 .debug_line    0x0001579a       0xc7 build/stm32f4xx_hal_sdram.c.o
 .debug_line    0x00015861      0x298 build/stm32f4xx_hal_rcc_ex.c.o
 .debug_line    0x00015af9       0xc7 build/stm32f4xx_hal_sai_ex.c.o
 .debug_line    0x00015bc0      0x4c1 build/stm32f4xx_hal_dma.c.o
 .debug_line    0x00016081      0x504 build/stm32f4xx_hal_rcc.c.o
 .debug_line    0x00016585      0x2e0 build/stm32f4xx_hal_cortex.c.o
 .debug_line    0x00016865     0x179c build/stm32f4xx_hal_i2c.c.o
 .debug_line    0x00018001       0xc7 build/stm32f4xx_hal_rtc.c.o
 .debug_line    0x000180c8       0xc7 build/stm32f4xx_hal_cryp.c.o
 .debug_line    0x0001818f       0xc7 build/stm32f4xx_hal_dac_ex.c.o
 .debug_line    0x00018256      0x38e build/stm32f4xx_hal_flash.c.o
 .debug_line    0x000185e4      0x6bc build/stm32f4xx_hal_adc.c.o
 .debug_line    0x00018ca0       0xc7 build/stm32f4xx_hal_flash_ramfunc.c.o
 .debug_line    0x00018d67      0x94d build/stm32f4xx_hal_usart.c.o

.debug_str      0x00000000    0x101d6
 .debug_str     0x00000000      0x925 build/usbh_pipes.c.o
                                0xa14 (size before relaxing)
 .debug_str     0x00000925      0x2fc build/usbh_ctlreq.c.o
                                0xc49 (size before relaxing)
 .debug_str     0x00000c21      0x106 build/usbh_ioreq.c.o
                                0xa7e (size before relaxing)
 .debug_str     0x00000d27      0x205 build/usbh_core.c.o
                                0xc41 (size before relaxing)
 .debug_str     0x00000f2c      0x410 build/usbd_ioreq.c.o
                                0x66f (size before relaxing)
 .debug_str     0x0000133c      0x247 build/usbd_core.c.o
                                0x828 (size before relaxing)
 .debug_str     0x00001583      0x128 build/usbd_ctlreq.c.o
                                0x742 (size before relaxing)
 .debug_str     0x000016ab      0x397 build/usbd_midi.c.o
                                0x9d2 (size before relaxing)
 .debug_str     0x00001a42      0xc44 build/usbd_conf.c.o
                               0x13c0 (size before relaxing)
 .debug_str     0x00002686      0x67c build/power_ctrl.c.o
                                0x834 (size before relaxing)
 .debug_str     0x00002d02      0xc58 build/stm32f4xx_it.c.o
                               0x1243 (size before relaxing)
 .debug_str     0x0000395a      0x3d5 build/main.c.o
                                0x722 (size before relaxing)
 .debug_str     0x00003d2f      0x148 build/switch_filter.c.o
                                0x2ef (size before relaxing)
 .debug_str     0x00003e77      0x1c2 build/panel_if.c.o
                                0xf57 (size before relaxing)
 .debug_str     0x00004039      0x14d build/analog_out.c.o
                                0xf08 (size before relaxing)
 .debug_str     0x00004186       0x81 build/debug.c.o
                                0x431 (size before relaxing)
 .debug_str     0x00004207      0x1bb build/cvproc.c.o
                                0x455 (size before relaxing)
 .debug_str     0x000043c2       0x51 build/stm32f4xx_hal_msp.c.o
                                0x6e7 (size before relaxing)
 .debug_str     0x00004413      0x1ed build/gfx.c.o
                                0x3ba (size before relaxing)
 .debug_str     0x00004600      0x100 build/ioctl.c.o
                                0x92d (size before relaxing)
 .debug_str     0x00004700      0x35b build/lcd_fsmc_if.c.o
                                0x99d (size before relaxing)
 .debug_str     0x00004a5b       0xba build/ILI948x_drv.c.o
                                0x4db (size before relaxing)
 .debug_str     0x00004b15       0x1f build/font_sinclair_8x8.c.o
                                0x196 (size before relaxing)
 .debug_str     0x00004b34       0x1e build/font_system_8x12.c.o
                                0x194 (size before relaxing)
 .debug_str     0x00004b52      0x896 build/gui.c.o
                               0x1164 (size before relaxing)
 .debug_str     0x000053e8      0x85c build/panel_menu.c.o
                               0x10c4 (size before relaxing)
 .debug_str     0x00005c44      0x734 build/panel.c.o
                               0x101d (size before relaxing)
 .debug_str     0x00006378      0x3d8 build/step_edit.c.o
                                0xda2 (size before relaxing)
 .debug_str     0x00006750      0x16a build/song_edit.c.o
                                0x457 (size before relaxing)
 .debug_str     0x000068ba      0x16b build/config_store.c.o
                                0x877 (size before relaxing)
 .debug_str     0x00006a25      0x211 build/midi_stream.c.o
                                0x4a3 (size before relaxing)
 .debug_str     0x00006c36      0x175 build/midi_utils.c.o
                                0x556 (size before relaxing)
 .debug_str     0x00006dab       0x64 build/log.c.o
                                0x1f3 (size before relaxing)
 .debug_str     0x00006e0f       0x38 build/time_utils.c.o
                                0x1cb (size before relaxing)
 .debug_str     0x00006e47       0x60 build/panel_utils.c.o
                                0x398 (size before relaxing)
 .debug_str     0x00006ea7       0x8f build/state_change.c.o
                                0x260 (size before relaxing)
 .debug_str     0x00006f36       0xb1 build/seq_utils.c.o
                                0x2c0 (size before relaxing)
 .debug_str     0x00006fe7       0xb9 build/system_stm32f4xx.c.o
                                0x359 (size before relaxing)
 .debug_str     0x000070a0       0x10 build/lcd_drv.c.o
                                0x196 (size before relaxing)
 .debug_str     0x000070b0       0xf8 build/spi_flash.c.o
                                0xed2 (size before relaxing)
 .debug_str     0x000071a8      0x233 build/iface_midi_router.c.o
                                0xa61 (size before relaxing)
 .debug_str     0x000073db       0x2b build/iface_panel.c.o
                                0x246 (size before relaxing)
 .debug_str     0x00007406      0x254 build/usbh_midi.c.o
                               0x1874 (size before relaxing)
 .debug_str     0x0000765a      0x1cf build/usbh_conf.c.o
                               0x1815 (size before relaxing)
 .debug_str     0x00007829       0x21 build/delay.c.o
                                0x1cf (size before relaxing)
 .debug_str     0x0000784a       0xb5 build/metronome.c.o
                                0x368 (size before relaxing)
 .debug_str     0x000078ff      0x10f build/sysex.c.o
                                0x38c (size before relaxing)
 .debug_str     0x00007a0e      0x162 build/midi_ctrl.c.o
                                0x384 (size before relaxing)
 .debug_str     0x00007b70       0x93 build/pattern.c.o
                                0x7f8 (size before relaxing)
 .debug_str     0x00007c03      0x38e build/arp.c.o
                                0x61b (size before relaxing)
 .debug_str     0x00007f91      0x5c4 build/seq_ctrl.c.o
                               0x1a2c (size before relaxing)
 .debug_str     0x00008555       0xb6 build/arp_progs.c.o
                                0x34d (size before relaxing)
 .debug_str     0x0000860b      0x18e build/clock.c.o
                                0x958 (size before relaxing)
 .debug_str     0x00008799       0xfd build/clock_out.c.o
                                0x971 (size before relaxing)
 .debug_str     0x00008896       0x7b build/scale.c.o
                                0x1f0 (size before relaxing)
 .debug_str     0x00008911      0x78b build/seq_engine.c.o
                               0x196d (size before relaxing)
 .debug_str     0x0000909c      0x191 build/song.c.o
                               0x1215 (size before relaxing)
 .debug_str     0x0000922d       0xbd build/outproc.c.o
                                0x49c (size before relaxing)
 .debug_str     0x000092ea      0x1da build/spi_callbacks.c.o
                                0x90b (size before relaxing)
 .debug_str     0x000094c4       0x7f build/ext_flash.c.o
                                0x2f4 (size before relaxing)
 .debug_str     0x00009543      0x139 build/din_midi.c.o
                                0xec2 (size before relaxing)
 .debug_str     0x0000967c       0xf7 build/stm32f4xx_hal_dma_ex.c.o
                                0x578 (size before relaxing)
 .debug_str     0x00009773       0x37 build/stm32f4xx_hal_sai.c.o
                                0x1a7 (size before relaxing)
 .debug_str     0x000097aa      0x12f build/stm32f4xx_hal_timebase_tim_template.c.o
                                0xe1e (size before relaxing)
 .debug_str     0x000098d9       0x3a build/stm32f4xx_hal_fmpi2c.c.o
                                0x1aa (size before relaxing)
 .debug_str     0x00009913      0x314 build/stm32f4xx_hal_hcd.c.o
                                0xac3 (size before relaxing)
 .debug_str     0x00009c27       0x37 build/stm32f4xx_hal_nor.c.o
                                0x1a7 (size before relaxing)
 .debug_str     0x00009c5e       0x3d build/stm32f4xx_hal_smartcard.c.o
                                0x1ad (size before relaxing)
 .debug_str     0x00009c9b       0x3b build/stm32f4xx_hal_hash_ex.c.o
                                0x1ab (size before relaxing)
 .debug_str     0x00009cd6      0x3b6 build/stm32f4xx_hal_adc_ex.c.o
                                0x9f0 (size before relaxing)
 .debug_str     0x0000a08c      0x2d7 build/stm32f4xx_hal_spi.c.o
                                0xaee (size before relaxing)
 .debug_str     0x0000a363      0x62b build/stm32f4xx_hal_tim_ex.c.o
                                0xca3 (size before relaxing)
 .debug_str     0x0000a98e       0x38 build/stm32f4xx_hal_ltdc.c.o
                                0x1a8 (size before relaxing)
 .debug_str     0x0000a9c6       0x38 build/stm32f4xx_hal_qspi.c.o
                                0x1a8 (size before relaxing)
 .debug_str     0x0000a9fe       0x38 build/stm32f4xx_hal_nand.c.o
                                0x1a8 (size before relaxing)
 .debug_str     0x0000aa36      0xba2 build/stm32f4xx_hal_tim.c.o
                               0x13eb (size before relaxing)
 .debug_str     0x0000b5d8       0x37 build/stm32f4xx_hal_dsi.c.o
                                0x1a7 (size before relaxing)
 .debug_str     0x0000b60f       0x3b build/stm32f4xx_hal_cryp_ex.c.o
                                0x1ab (size before relaxing)
 .debug_str     0x0000b64a       0x36 build/stm32f4xx_ll_fmc.c.o
                                0x1a6 (size before relaxing)
 .debug_str     0x0000b680      0x3c5 build/stm32f4xx_hal_pcd.c.o
                                0xbda (size before relaxing)
 .debug_str     0x0000ba45      0x113 build/stm32f4xx_hal_gpio.c.o
                                0x4d7 (size before relaxing)
 .debug_str     0x0000bb58       0x49 build/stm32f4xx_hal_pcd_ex.c.o
                                0x563 (size before relaxing)
 .debug_str     0x0000bba1      0x21e build/stm32f4xx_hal_pwr.c.o
                                0x554 (size before relaxing)
 .debug_str     0x0000bdbf       0x37 build/stm32f4xx_hal_dac.c.o
                                0x1a7 (size before relaxing)
 .debug_str     0x0000bdf6       0x3a build/stm32f4xx_hal_i2c_ex.c.o
                                0x1aa (size before relaxing)
 .debug_str     0x0000be30       0x37 build/stm32f4xx_hal_can.c.o
                                0x1a7 (size before relaxing)
 .debug_str     0x0000be67      0x1ff build/stm32f4xx_hal_rng.c.o
                                0x427 (size before relaxing)
 .debug_str     0x0000c066      0x314 build/stm32f4xx_hal_uart.c.o
                                0xa6e (size before relaxing)
 .debug_str     0x0000c37a       0x3d build/stm32f4xx_hal_fmpi2c_ex.c.o
                                0x1ad (size before relaxing)
 .debug_str     0x0000c3b7      0x311 build/stm32f4xx_hal_flash_ex.c.o
                                0x5a5 (size before relaxing)
 .debug_str     0x0000c6c8       0x3b build/stm32f4xx_hal_ltdc_ex.c.o
                                0x1ab (size before relaxing)
 .debug_str     0x0000c703      0x1f9 build/stm32f4xx_hal_sram.c.o
                                0x95a (size before relaxing)
 .debug_str     0x0000c8fc      0xf00 build/stm32f4xx_hal_sd.c.o
                               0x146b (size before relaxing)
 .debug_str     0x0000d7fc       0x3a build/stm32f4xx_hal_pccard.c.o
                                0x1aa (size before relaxing)
 .debug_str     0x0000d836       0x38 build/stm32f4xx_hal_hash.c.o
                                0x1a8 (size before relaxing)
 .debug_str     0x0000d86e      0x1fc build/stm32f4xx_hal_dcmi_ex.c.o
                                0x695 (size before relaxing)
 .debug_str     0x0000da6a       0xcb build/stm32f4xx_ll_sdmmc.c.o
                                0x4c0 (size before relaxing)
 .debug_str     0x0000db35      0x190 build/stm32f4xx_hal.c.o
                                0xa89 (size before relaxing)
 .debug_str     0x0000dcc5      0x36e build/stm32f4xx_hal_i2s.c.o
                                0x906 (size before relaxing)
 .debug_str     0x0000e033       0x38 build/stm32f4xx_hal_wwdg.c.o
                                0x1a8 (size before relaxing)
 .debug_str     0x0000e06b       0x38 build/stm32f4xx_hal_iwdg.c.o
                                0x1a8 (size before relaxing)
 .debug_str     0x0000e0a3       0xe4 build/stm32f4xx_hal_pwr_ex.c.o
                                0x3fd (size before relaxing)
 .debug_str     0x0000e187       0x37 build/stm32f4xx_hal_eth.c.o
                                0x1a7 (size before relaxing)
 .debug_str     0x0000e1be       0x39 build/stm32f4xx_hal_dma2d.c.o
                                0x1a9 (size before relaxing)
 .debug_str     0x0000e1f7       0x37 build/stm32f4xx_hal_crc.c.o
                                0x1a7 (size before relaxing)
 .debug_str     0x0000e22e       0x3b build/stm32f4xx_hal_spdifrx.c.o
                                0x1ab (size before relaxing)
 .debug_str     0x0000e269       0x3a build/stm32f4xx_hal_rtc_ex.c.o
                                0x1aa (size before relaxing)
 .debug_str     0x0000e2a3       0x37 build/stm32f4xx_hal_cec.c.o
                                0x1a7 (size before relaxing)
 .debug_str     0x0000e2da      0x190 build/stm32f4xx_hal_dcmi.c.o
                                0x8a3 (size before relaxing)
 .debug_str     0x0000e46a       0x39 build/stm32f4xx_hal_lptim.c.o
                                0x1a9 (size before relaxing)
 .debug_str     0x0000e4a3       0x38 build/stm32f4xx_hal_irda.c.o
                                0x1a8 (size before relaxing)
 .debug_str     0x0000e4db      0x2a8 build/stm32f4xx_ll_fsmc.c.o
                                0x701 (size before relaxing)
 .debug_str     0x0000e783       0xd5 build/stm32f4xx_hal_i2s_ex.c.o
                                0x99c (size before relaxing)
 .debug_str     0x0000e858       0xfe build/stm32f4xx_ll_usb.c.o
                                0xb87 (size before relaxing)
 .debug_str     0x0000e956       0x39 build/stm32f4xx_hal_sdram.c.o
                                0x1a9 (size before relaxing)
 .debug_str     0x0000e98f      0x103 build/stm32f4xx_hal_rcc_ex.c.o
                                0x427 (size before relaxing)
 .debug_str     0x0000ea92       0x3a build/stm32f4xx_hal_sai_ex.c.o
                                0x1aa (size before relaxing)
 .debug_str     0x0000eacc      0x131 build/stm32f4xx_hal_dma.c.o
                                0x649 (size before relaxing)
 .debug_str     0x0000ebfd      0x106 build/stm32f4xx_hal_rcc.c.o
                                0x6b2 (size before relaxing)
 .debug_str     0x0000ed03      0x2c7 build/stm32f4xx_hal_cortex.c.o
                                0xbcf (size before relaxing)
 .debug_str     0x0000efca      0x97c build/stm32f4xx_hal_i2c.c.o
                                0xed9 (size before relaxing)
 .debug_str     0x0000f946       0x37 build/stm32f4xx_hal_rtc.c.o
                                0x1a7 (size before relaxing)
 .debug_str     0x0000f97d       0x38 build/stm32f4xx_hal_cryp.c.o
                                0x1a8 (size before relaxing)
 .debug_str     0x0000f9b5       0x3a build/stm32f4xx_hal_dac_ex.c.o
                                0x1aa (size before relaxing)
 .debug_str     0x0000f9ef      0x1b0 build/stm32f4xx_hal_flash.c.o
                                0x53b (size before relaxing)
 .debug_str     0x0000fb9f      0x1e5 build/stm32f4xx_hal_adc.c.o
                                0x9a1 (size before relaxing)
 .debug_str     0x0000fd84       0x41 build/stm32f4xx_hal_flash_ramfunc.c.o
                                0x1b1 (size before relaxing)
 .debug_str     0x0000fdc5      0x411 build/stm32f4xx_hal_usart.c.o
                                0xa29 (size before relaxing)

.comment        0x00000000       0x70
 .comment       0x00000000       0x70 build/usbh_pipes.c.o
                                 0x71 (size before relaxing)
 .comment       0x00000000       0x71 build/usbh_ctlreq.c.o
 .comment       0x00000000       0x71 build/usbh_ioreq.c.o
 .comment       0x00000000       0x71 build/usbh_core.c.o
 .comment       0x00000000       0x71 build/usbd_ioreq.c.o
 .comment       0x00000000       0x71 build/usbd_core.c.o
 .comment       0x00000000       0x71 build/usbd_ctlreq.c.o
 .comment       0x00000000       0x71 build/usbd_midi.c.o
 .comment       0x00000000       0x71 build/usbd_conf.c.o
 .comment       0x00000000       0x71 build/power_ctrl.c.o
 .comment       0x00000000       0x71 build/stm32f4xx_it.c.o
 .comment       0x00000000       0x71 build/main.c.o
 .comment       0x00000000       0x71 build/switch_filter.c.o
 .comment       0x00000000       0x71 build/panel_if.c.o
 .comment       0x00000000       0x71 build/analog_out.c.o
 .comment       0x00000000       0x71 build/debug.c.o
 .comment       0x00000000       0x71 build/cvproc.c.o
 .comment       0x00000000       0x71 build/stm32f4xx_hal_msp.c.o
 .comment       0x00000000       0x71 build/gfx.c.o
 .comment       0x00000000       0x71 build/ioctl.c.o
 .comment       0x00000000       0x71 build/lcd_fsmc_if.c.o
 .comment       0x00000000       0x71 build/ILI948x_drv.c.o
 .comment       0x00000000       0x71 build/font_sinclair_8x8.c.o
 .comment       0x00000000       0x71 build/font_system_8x12.c.o
 .comment       0x00000000       0x71 build/gui.c.o
 .comment       0x00000000       0x71 build/panel_menu.c.o
 .comment       0x00000000       0x71 build/panel.c.o
 .comment       0x00000000       0x71 build/step_edit.c.o
 .comment       0x00000000       0x71 build/song_edit.c.o
 .comment       0x00000000       0x71 build/config_store.c.o
 .comment       0x00000000       0x71 build/midi_stream.c.o
 .comment       0x00000000       0x71 build/midi_utils.c.o
 .comment       0x00000000       0x71 build/log.c.o
 .comment       0x00000000       0x71 build/time_utils.c.o
 .comment       0x00000000       0x71 build/panel_utils.c.o
 .comment       0x00000000       0x71 build/state_change.c.o
 .comment       0x00000000       0x71 build/seq_utils.c.o
 .comment       0x00000000       0x71 build/system_stm32f4xx.c.o
 .comment       0x00000000       0x71 build/lcd_drv.c.o
 .comment       0x00000000       0x71 build/spi_flash.c.o
 .comment       0x00000000       0x71 build/iface_midi_router.c.o
 .comment       0x00000000       0x71 build/iface_panel.c.o
 .comment       0x00000000       0x71 build/usbh_midi.c.o
 .comment       0x00000000       0x71 build/usbh_conf.c.o
 .comment       0x00000000       0x71 build/delay.c.o
 .comment       0x00000000       0x71 build/metronome.c.o
 .comment       0x00000000       0x71 build/sysex.c.o
 .comment       0x00000000       0x71 build/midi_ctrl.c.o
 .comment       0x00000000       0x71 build/pattern.c.o
 .comment       0x00000000       0x71 build/arp.c.o
 .comment       0x00000000       0x71 build/seq_ctrl.c.o
 .comment       0x00000000       0x71 build/arp_progs.c.o
 .comment       0x00000000       0x71 build/clock.c.o
 .comment       0x00000000       0x71 build/clock_out.c.o
 .comment       0x00000000       0x71 build/scale.c.o
 .comment       0x00000000       0x71 build/seq_engine.c.o
 .comment       0x00000000       0x71 build/song.c.o
 .comment       0x00000000       0x71 build/outproc.c.o
 .comment       0x00000000       0x71 build/spi_callbacks.c.o
 .comment       0x00000000       0x71 build/ext_flash.c.o
 .comment       0x00000000       0x71 build/din_midi.c.o
 .comment       0x00000000       0x71 build/stm32f4xx_hal_dma_ex.c.o
 .comment       0x00000000       0x71 build/stm32f4xx_hal_sai.c.o
 .comment       0x00000000       0x71 build/stm32f4xx_hal_timebase_tim_template.c.o
 .comment       0x00000000       0x71 build/stm32f4xx_hal_fmpi2c.c.o
 .comment       0x00000000       0x71 build/stm32f4xx_hal_hcd.c.o
 .comment       0x00000000       0x71 build/stm32f4xx_hal_nor.c.o
 .comment       0x00000000       0x71 build/stm32f4xx_hal_smartcard.c.o
 .comment       0x00000000       0x71 build/stm32f4xx_hal_hash_ex.c.o
 .comment       0x00000000       0x71 build/stm32f4xx_hal_adc_ex.c.o
 .comment       0x00000000       0x71 build/stm32f4xx_hal_spi.c.o
 .comment       0x00000000       0x71 build/stm32f4xx_hal_tim_ex.c.o
 .comment       0x00000000       0x71 build/stm32f4xx_hal_ltdc.c.o
 .comment       0x00000000       0x71 build/stm32f4xx_hal_qspi.c.o
 .comment       0x00000000       0x71 build/stm32f4xx_hal_nand.c.o
 .comment       0x00000000       0x71 build/stm32f4xx_hal_tim.c.o
 .comment       0x00000000       0x71 build/stm32f4xx_hal_dsi.c.o
 .comment       0x00000000       0x71 build/stm32f4xx_hal_cryp_ex.c.o
 .comment       0x00000000       0x71 build/stm32f4xx_ll_fmc.c.o
 .comment       0x00000000       0x71 build/stm32f4xx_hal_pcd.c.o
 .comment       0x00000000       0x71 build/stm32f4xx_hal_gpio.c.o
 .comment       0x00000000       0x71 build/stm32f4xx_hal_pcd_ex.c.o
 .comment       0x00000000       0x71 build/stm32f4xx_hal_pwr.c.o
 .comment       0x00000000       0x71 build/stm32f4xx_hal_dac.c.o
 .comment       0x00000000       0x71 build/stm32f4xx_hal_i2c_ex.c.o
 .comment       0x00000000       0x71 build/stm32f4xx_hal_can.c.o
 .comment       0x00000000       0x71 build/stm32f4xx_hal_rng.c.o
 .comment       0x00000000       0x71 build/stm32f4xx_hal_uart.c.o
 .comment       0x00000000       0x71 build/stm32f4xx_hal_fmpi2c_ex.c.o
 .comment       0x00000000       0x71 build/stm32f4xx_hal_flash_ex.c.o
 .comment       0x00000000       0x71 build/stm32f4xx_hal_ltdc_ex.c.o
 .comment       0x00000000       0x71 build/stm32f4xx_hal_sram.c.o
 .comment       0x00000000       0x71 build/stm32f4xx_hal_sd.c.o
 .comment       0x00000000       0x71 build/stm32f4xx_hal_pccard.c.o
 .comment       0x00000000       0x71 build/stm32f4xx_hal_hash.c.o
 .comment       0x00000000       0x71 build/stm32f4xx_hal_dcmi_ex.c.o
 .comment       0x00000000       0x71 build/stm32f4xx_ll_sdmmc.c.o
 .comment       0x00000000       0x71 build/stm32f4xx_hal.c.o
 .comment       0x00000000       0x71 build/stm32f4xx_hal_i2s.c.o
 .comment       0x00000000       0x71 build/stm32f4xx_hal_wwdg.c.o
 .comment       0x00000000       0x71 build/stm32f4xx_hal_iwdg.c.o
 .comment       0x00000000       0x71 build/stm32f4xx_hal_pwr_ex.c.o
 .comment       0x00000000       0x71 build/stm32f4xx_hal_eth.c.o
 .comment       0x00000000       0x71 build/stm32f4xx_hal_dma2d.c.o
 .comment       0x00000000       0x71 build/stm32f4xx_hal_crc.c.o
 .comment       0x00000000       0x71 build/stm32f4xx_hal_spdifrx.c.o
 .comment       0x00000000       0x71 build/stm32f4xx_hal_rtc_ex.c.o
 .comment       0x00000000       0x71 build/stm32f4xx_hal_cec.c.o
 .comment       0x00000000       0x71 build/stm32f4xx_hal_dcmi.c.o
 .comment       0x00000000       0x71 build/stm32f4xx_hal_lptim.c.o
 .comment       0x00000000       0x71 build/stm32f4xx_hal_irda.c.o
 .comment       0x00000000       0x71 build/stm32f4xx_ll_fsmc.c.o
 .comment       0x00000000       0x71 build/stm32f4xx_hal_i2s_ex.c.o
 .comment       0x00000000       0x71 build/stm32f4xx_ll_usb.c.o
 .comment       0x00000000       0x71 build/stm32f4xx_hal_sdram.c.o
 .comment       0x00000000       0x71 build/stm32f4xx_hal_rcc_ex.c.o
 .comment       0x00000000       0x71 build/stm32f4xx_hal_sai_ex.c.o
 .comment       0x00000000       0x71 build/stm32f4xx_hal_dma.c.o
 .comment       0x00000000       0x71 build/stm32f4xx_hal_rcc.c.o
 .comment       0x00000000       0x71 build/stm32f4xx_hal_cortex.c.o
 .comment       0x00000000       0x71 build/stm32f4xx_hal_i2c.c.o
 .comment       0x00000000       0x71 build/stm32f4xx_hal_rtc.c.o
 .comment       0x00000000       0x71 build/stm32f4xx_hal_cryp.c.o
 .comment       0x00000000       0x71 build/stm32f4xx_hal_dac_ex.c.o
 .comment       0x00000000       0x71 build/stm32f4xx_hal_flash.c.o
 .comment       0x00000000       0x71 build/stm32f4xx_hal_adc.c.o
 .comment       0x00000000       0x71 build/stm32f4xx_hal_flash_ramfunc.c.o
 .comment       0x00000000       0x71 build/stm32f4xx_hal_usart.c.o

.debug_frame    0x00000000     0xcdf0
 .debug_frame   0x00000000       0x80 build/usbh_pipes.c.o
 .debug_frame   0x00000080      0x148 build/usbh_ctlreq.c.o
 .debug_frame   0x000001c8      0x130 build/usbh_ioreq.c.o
 .debug_frame   0x000002f8      0x184 build/usbh_core.c.o
 .debug_frame   0x0000047c       0xc0 build/usbd_ioreq.c.o
 .debug_frame   0x0000053c      0x1c0 build/usbd_core.c.o
 .debug_frame   0x000006fc       0xbc build/usbd_ctlreq.c.o
 .debug_frame   0x000007b8      0x204 build/usbd_midi.c.o
 .debug_frame   0x000009bc      0x264 build/usbd_conf.c.o
 .debug_frame   0x00000c20       0x5c build/power_ctrl.c.o
 .debug_frame   0x00000c7c      0x188 build/stm32f4xx_it.c.o
 .debug_frame   0x00000e04       0x58 build/main.c.o
 .debug_frame   0x00000e5c       0xa0 build/switch_filter.c.o
 .debug_frame   0x00000efc      0x13c build/panel_if.c.o
 .debug_frame   0x00001038      0x120 build/analog_out.c.o
 .debug_frame   0x00001158       0x88 build/debug.c.o
 .debug_frame   0x000011e0      0x2e8 build/cvproc.c.o
 .debug_frame   0x000014c8       0x3c build/stm32f4xx_hal_msp.c.o
 .debug_frame   0x00001504      0x124 build/gfx.c.o
 .debug_frame   0x00001628       0xc8 build/ioctl.c.o
 .debug_frame   0x000016f0      0x104 build/lcd_fsmc_if.c.o
 .debug_frame   0x000017f4      0x16c build/ILI948x_drv.c.o
 .debug_frame   0x00001960      0x820 build/gui.c.o
 .debug_frame   0x00002180      0x494 build/panel_menu.c.o
 .debug_frame   0x00002614      0x598 build/panel.c.o
 .debug_frame   0x00002bac      0x358 build/step_edit.c.o
 .debug_frame   0x00002f04      0x148 build/song_edit.c.o
 .debug_frame   0x0000304c       0xd8 build/config_store.c.o
 .debug_frame   0x00003124       0xe0 build/midi_stream.c.o
 .debug_frame   0x00003204      0x2c0 build/midi_utils.c.o
 .debug_frame   0x000034c4      0x138 build/log.c.o
 .debug_frame   0x000035fc       0x30 build/time_utils.c.o
 .debug_frame   0x0000362c      0x1a4 build/panel_utils.c.o
 .debug_frame   0x000037d0       0xd4 build/state_change.c.o
 .debug_frame   0x000038a4       0xac build/seq_utils.c.o
 .debug_frame   0x00003950       0x3c build/system_stm32f4xx.c.o
 .debug_frame   0x0000398c       0xd8 build/spi_flash.c.o
 .debug_frame   0x00003a64      0x1d4 build/iface_midi_router.c.o
 .debug_frame   0x00003c38       0x50 build/iface_panel.c.o
 .debug_frame   0x00003c88      0x100 build/usbh_midi.c.o
 .debug_frame   0x00003d88      0x1f8 build/usbh_conf.c.o
 .debug_frame   0x00003f80       0x40 build/delay.c.o
 .debug_frame   0x00003fc0       0xac build/metronome.c.o
 .debug_frame   0x0000406c      0x1d0 build/sysex.c.o
 .debug_frame   0x0000423c       0xa8 build/midi_ctrl.c.o
 .debug_frame   0x000042e4       0xb4 build/pattern.c.o
 .debug_frame   0x00004398      0x2dc build/arp.c.o
 .debug_frame   0x00004674      0xab4 build/seq_ctrl.c.o
 .debug_frame   0x00005128      0x1d0 build/arp_progs.c.o
 .debug_frame   0x000052f8      0x11c build/clock.c.o
 .debug_frame   0x00005414      0x124 build/clock_out.c.o
 .debug_frame   0x00005538       0x60 build/scale.c.o
 .debug_frame   0x00005598      0x850 build/seq_engine.c.o
 .debug_frame   0x00005de8      0xb70 build/song.c.o
 .debug_frame   0x00006958      0x130 build/outproc.c.o
 .debug_frame   0x00006a88      0x1bc build/spi_callbacks.c.o
 .debug_frame   0x00006c44       0xe0 build/ext_flash.c.o
 .debug_frame   0x00006d24       0x9c build/din_midi.c.o
 .debug_frame   0x00006dc0       0x70 build/stm32f4xx_hal_dma_ex.c.o
 .debug_frame   0x00006e30       0x74 build/stm32f4xx_hal_timebase_tim_template.c.o
 .debug_frame   0x00006ea4      0x208 build/stm32f4xx_hal_hcd.c.o
 .debug_frame   0x000070ac      0x1dc build/stm32f4xx_hal_adc_ex.c.o
 .debug_frame   0x00007288      0x574 build/stm32f4xx_hal_spi.c.o
 .debug_frame   0x000077fc      0x340 build/stm32f4xx_hal_tim_ex.c.o
 .debug_frame   0x00007b3c      0x9c4 build/stm32f4xx_hal_tim.c.o
 .debug_frame   0x00008500      0x2e4 build/stm32f4xx_hal_pcd.c.o
 .debug_frame   0x000087e4       0xd8 build/stm32f4xx_hal_gpio.c.o
 .debug_frame   0x000088bc       0x44 build/stm32f4xx_hal_pcd_ex.c.o
 .debug_frame   0x00008900      0x140 build/stm32f4xx_hal_pwr.c.o
 .debug_frame   0x00008a40      0x148 build/stm32f4xx_hal_rng.c.o
 .debug_frame   0x00008b88      0x3b4 build/stm32f4xx_hal_uart.c.o
 .debug_frame   0x00008f3c       0x9c build/stm32f4xx_hal_flash_ex.c.o
 .debug_frame   0x00008fd8      0x200 build/stm32f4xx_hal_sram.c.o
 .debug_frame   0x000091d8      0x46c build/stm32f4xx_hal_sd.c.o
 .debug_frame   0x00009644       0x38 build/stm32f4xx_hal_dcmi_ex.c.o
 .debug_frame   0x0000967c      0x118 build/stm32f4xx_ll_sdmmc.c.o
 .debug_frame   0x00009794      0x188 build/stm32f4xx_hal.c.o
 .debug_frame   0x0000991c      0x2dc build/stm32f4xx_hal_i2s.c.o
 .debug_frame   0x00009bf8       0xa0 build/stm32f4xx_hal_pwr_ex.c.o
 .debug_frame   0x00009c98      0x1d0 build/stm32f4xx_hal_dcmi.c.o
 .debug_frame   0x00009e68      0x208 build/stm32f4xx_ll_fsmc.c.o
 .debug_frame   0x0000a070      0x1b4 build/stm32f4xx_hal_i2s_ex.c.o
 .debug_frame   0x0000a224      0x4cc build/stm32f4xx_ll_usb.c.o
 .debug_frame   0x0000a6f0       0x6c build/stm32f4xx_hal_rcc_ex.c.o
 .debug_frame   0x0000a75c      0x154 build/stm32f4xx_hal_dma.c.o
 .debug_frame   0x0000a8b0      0x188 build/stm32f4xx_hal_rcc.c.o
 .debug_frame   0x0000aa38      0x150 build/stm32f4xx_hal_cortex.c.o
 .debug_frame   0x0000ab88      0x7b4 build/stm32f4xx_hal_i2c.c.o
 .debug_frame   0x0000b33c      0x11c build/stm32f4xx_hal_flash.c.o
 .debug_frame   0x0000b458      0x2d0 build/stm32f4xx_hal_adc.c.o
 .debug_frame   0x0000b728      0x33c build/stm32f4xx_hal_usart.c.o
 .debug_frame   0x0000ba64       0x2c /home/andrew/bin/gcc-arm/bin/../lib/gcc/arm-none-eabi/4.9.3/armv7e-m/libgcc.a(_fixunsdfdi.o)
 .debug_frame   0x0000ba90       0x28 /home/andrew/bin/gcc-arm/bin/../lib/gcc/arm-none-eabi/4.9.3/../../../../arm-none-eabi/lib/armv7e-m/libc.a(lib_a-exit.o)
 .debug_frame   0x0000bab8       0x2c /home/andrew/bin/gcc-arm/bin/../lib/gcc/arm-none-eabi/4.9.3/../../../../arm-none-eabi/lib/armv7e-m/libc.a(lib_a-init.o)
 .debug_frame   0x0000bae4       0x30 /home/andrew/bin/gcc-arm/bin/../lib/gcc/arm-none-eabi/4.9.3/../../../../arm-none-eabi/lib/armv7e-m/libc.a(lib_a-malloc.o)
 .debug_frame   0x0000bb14       0x58 /home/andrew/bin/gcc-arm/bin/../lib/gcc/arm-none-eabi/4.9.3/../../../../arm-none-eabi/lib/armv7e-m/libc.a(lib_a-mallocr.o)
 .debug_frame   0x0000bb6c       0x34 /home/andrew/bin/gcc-arm/bin/../lib/gcc/arm-none-eabi/4.9.3/../../../../arm-none-eabi/lib/armv7e-m/libc.a(lib_a-memset.o)
 .debug_frame   0x0000bba0       0x30 /home/andrew/bin/gcc-arm/bin/../lib/gcc/arm-none-eabi/4.9.3/../../../../arm-none-eabi/lib/armv7e-m/libc.a(lib_a-mlock.o)
 .debug_frame   0x0000bbd0       0x74 /home/andrew/bin/gcc-arm/bin/../lib/gcc/arm-none-eabi/4.9.3/../../../../arm-none-eabi/lib/armv7e-m/libc.a(lib_a-printf.o)
 .debug_frame   0x0000bc44       0x3c /home/andrew/bin/gcc-arm/bin/../lib/gcc/arm-none-eabi/4.9.3/../../../../arm-none-eabi/lib/armv7e-m/libc.a(lib_a-rand.o)
 .debug_frame   0x0000bc80       0x2c /home/andrew/bin/gcc-arm/bin/../lib/gcc/arm-none-eabi/4.9.3/../../../../arm-none-eabi/lib/armv7e-m/libc.a(lib_a-sbrkr.o)
 .debug_frame   0x0000bcac       0x84 /home/andrew/bin/gcc-arm/bin/../lib/gcc/arm-none-eabi/4.9.3/../../../../arm-none-eabi/lib/armv7e-m/libc.a(lib_a-sprintf.o)
 .debug_frame   0x0000bd30       0x20 /home/andrew/bin/gcc-arm/bin/../lib/gcc/arm-none-eabi/4.9.3/../../../../arm-none-eabi/lib/armv7e-m/libc.a(lib_a-strcpy.o)
 .debug_frame   0x0000bd50       0x20 /home/andrew/bin/gcc-arm/bin/../lib/gcc/arm-none-eabi/4.9.3/../../../../arm-none-eabi/lib/armv7e-m/libc.a(lib_a-strlen.o)
 .debug_frame   0x0000bd70       0x40 /home/andrew/bin/gcc-arm/bin/../lib/gcc/arm-none-eabi/4.9.3/../../../../arm-none-eabi/lib/armv7e-m/libc.a(lib_a-svfprintf.o)
 .debug_frame   0x0000bdb0       0x90 /home/andrew/bin/gcc-arm/bin/../lib/gcc/arm-none-eabi/4.9.3/../../../../arm-none-eabi/lib/armv7e-m/libc.a(lib_a-vfprintf.o)
 .debug_frame   0x0000be40       0x50 /home/andrew/bin/gcc-arm/bin/../lib/gcc/arm-none-eabi/4.9.3/../../../../arm-none-eabi/lib/armv7e-m/libc.a(lib_a-vsprintf.o)
 .debug_frame   0x0000be90       0x2c /home/andrew/bin/gcc-arm/bin/../lib/gcc/arm-none-eabi/4.9.3/../../../../arm-none-eabi/lib/armv7e-m/libc.a(lib_a-wsetup.o)
 .debug_frame   0x0000bebc       0x50 /home/andrew/bin/gcc-arm/bin/../lib/gcc/arm-none-eabi/4.9.3/../../../../arm-none-eabi/lib/armv7e-m/libc.a(lib_a-__call_atexit.o)
 .debug_frame   0x0000bf0c       0x20 /home/andrew/bin/gcc-arm/bin/../lib/gcc/arm-none-eabi/4.9.3/../../../../arm-none-eabi/lib/armv7e-m/libc.a(lib_a-atexit.o)
 .debug_frame   0x0000bf2c       0x88 /home/andrew/bin/gcc-arm/bin/../lib/gcc/arm-none-eabi/4.9.3/../../../../arm-none-eabi/lib/armv7e-m/libc.a(lib_a-dtoa.o)
 .debug_frame   0x0000bfb4       0x6c /home/andrew/bin/gcc-arm/bin/../lib/gcc/arm-none-eabi/4.9.3/../../../../arm-none-eabi/lib/armv7e-m/libc.a(lib_a-fflush.o)
 .debug_frame   0x0000c020      0x124 /home/andrew/bin/gcc-arm/bin/../lib/gcc/arm-none-eabi/4.9.3/../../../../arm-none-eabi/lib/armv7e-m/libc.a(lib_a-findfp.o)
 .debug_frame   0x0000c144       0x34 /home/andrew/bin/gcc-arm/bin/../lib/gcc/arm-none-eabi/4.9.3/../../../../arm-none-eabi/lib/armv7e-m/libc.a(lib_a-fini.o)
 .debug_frame   0x0000c178       0x74 /home/andrew/bin/gcc-arm/bin/../lib/gcc/arm-none-eabi/4.9.3/../../../../arm-none-eabi/lib/armv7e-m/libc.a(lib_a-freer.o)
 .debug_frame   0x0000c1ec       0x54 /home/andrew/bin/gcc-arm/bin/../lib/gcc/arm-none-eabi/4.9.3/../../../../arm-none-eabi/lib/armv7e-m/libc.a(lib_a-fwalk.o)
 .debug_frame   0x0000c240       0x9c /home/andrew/bin/gcc-arm/bin/../lib/gcc/arm-none-eabi/4.9.3/../../../../arm-none-eabi/lib/armv7e-m/libc.a(lib_a-locale.o)
 .debug_frame   0x0000c2dc       0x48 /home/andrew/bin/gcc-arm/bin/../lib/gcc/arm-none-eabi/4.9.3/../../../../arm-none-eabi/lib/armv7e-m/libc.a(lib_a-makebuf.o)
 .debug_frame   0x0000c324       0x3c /home/andrew/bin/gcc-arm/bin/../lib/gcc/arm-none-eabi/4.9.3/../../../../arm-none-eabi/lib/armv7e-m/libc.a(lib_a-memchr.o)
 .debug_frame   0x0000c360      0x268 /home/andrew/bin/gcc-arm/bin/../lib/gcc/arm-none-eabi/4.9.3/../../../../arm-none-eabi/lib/armv7e-m/libc.a(lib_a-mprec.o)
 .debug_frame   0x0000c5c8       0x58 /home/andrew/bin/gcc-arm/bin/../lib/gcc/arm-none-eabi/4.9.3/../../../../arm-none-eabi/lib/armv7e-m/libc.a(lib_a-reent.o)
 .debug_frame   0x0000c620       0x34 /home/andrew/bin/gcc-arm/bin/../lib/gcc/arm-none-eabi/4.9.3/../../../../arm-none-eabi/lib/armv7e-m/libc.a(lib_a-s_fpclassify.o)
 .debug_frame   0x0000c654       0x88 /home/andrew/bin/gcc-arm/bin/../lib/gcc/arm-none-eabi/4.9.3/../../../../arm-none-eabi/lib/armv7e-m/libc.a(lib_a-stdio.o)
 .debug_frame   0x0000c6dc       0x78 /home/andrew/bin/gcc-arm/bin/../lib/gcc/arm-none-eabi/4.9.3/../../../../arm-none-eabi/lib/armv7e-m/libc.a(lib_a-svfiprintf.o)
 .debug_frame   0x0000c754       0xd8 /home/andrew/bin/gcc-arm/bin/../lib/gcc/arm-none-eabi/4.9.3/../../../../arm-none-eabi/lib/armv7e-m/libc.a(lib_a-vfiprintf.o)
 .debug_frame   0x0000c82c       0x2c /home/andrew/bin/gcc-arm/bin/../lib/gcc/arm-none-eabi/4.9.3/../../../../arm-none-eabi/lib/armv7e-m/libc.a(lib_a-writer.o)
 .debug_frame   0x0000c858       0x34 /home/andrew/bin/gcc-arm/bin/../lib/gcc/arm-none-eabi/4.9.3/../../../../arm-none-eabi/lib/armv7e-m/libc.a(lib_a-__atexit.o)
 .debug_frame   0x0000c88c       0x28 /home/andrew/bin/gcc-arm/bin/../lib/gcc/arm-none-eabi/4.9.3/../../../../arm-none-eabi/lib/armv7e-m/libc.a(lib_a-callocr.o)
 .debug_frame   0x0000c8b4       0x2c /home/andrew/bin/gcc-arm/bin/../lib/gcc/arm-none-eabi/4.9.3/../../../../arm-none-eabi/lib/armv7e-m/libc.a(lib_a-closer.o)
 .debug_frame   0x0000c8e0       0x44 /home/andrew/bin/gcc-arm/bin/../lib/gcc/arm-none-eabi/4.9.3/../../../../arm-none-eabi/lib/armv7e-m/libc.a(lib_a-fclose.o)
 .debug_frame   0x0000c924       0x84 /home/andrew/bin/gcc-arm/bin/../lib/gcc/arm-none-eabi/4.9.3/../../../../arm-none-eabi/lib/armv7e-m/libc.a(lib_a-fputwc.o)
 .debug_frame   0x0000c9a8       0x2c /home/andrew/bin/gcc-arm/bin/../lib/gcc/arm-none-eabi/4.9.3/../../../../arm-none-eabi/lib/armv7e-m/libc.a(lib_a-fstatr.o)
 .debug_frame   0x0000c9d4       0x68 /home/andrew/bin/gcc-arm/bin/../lib/gcc/arm-none-eabi/4.9.3/../../../../arm-none-eabi/lib/armv7e-m/libc.a(lib_a-fvwrite.o)
 .debug_frame   0x0000ca3c       0x2c /home/andrew/bin/gcc-arm/bin/../lib/gcc/arm-none-eabi/4.9.3/../../../../arm-none-eabi/lib/armv7e-m/libc.a(lib_a-isattyr.o)
 .debug_frame   0x0000ca68       0x2c /home/andrew/bin/gcc-arm/bin/../lib/gcc/arm-none-eabi/4.9.3/../../../../arm-none-eabi/lib/armv7e-m/libc.a(lib_a-lseekr.o)
 .debug_frame   0x0000ca94       0x30 /home/andrew/bin/gcc-arm/bin/../lib/gcc/arm-none-eabi/4.9.3/../../../../arm-none-eabi/lib/armv7e-m/libc.a(lib_a-memmove.o)
 .debug_frame   0x0000cac4       0x2c /home/andrew/bin/gcc-arm/bin/../lib/gcc/arm-none-eabi/4.9.3/../../../../arm-none-eabi/lib/armv7e-m/libc.a(lib_a-readr.o)
 .debug_frame   0x0000caf0       0x60 /home/andrew/bin/gcc-arm/bin/../lib/gcc/arm-none-eabi/4.9.3/../../../../arm-none-eabi/lib/armv7e-m/libc.a(lib_a-reallocr.o)
 .debug_frame   0x0000cb50       0x3c /home/andrew/bin/gcc-arm/bin/../lib/gcc/arm-none-eabi/4.9.3/../../../../arm-none-eabi/lib/armv7e-m/libc.a(lib_a-wbuf.o)
 .debug_frame   0x0000cb8c       0x60 /home/andrew/bin/gcc-arm/bin/../lib/gcc/arm-none-eabi/4.9.3/../../../../arm-none-eabi/lib/armv7e-m/libc.a(lib_a-wcrtomb.o)
 .debug_frame   0x0000cbec       0x48 /home/andrew/bin/gcc-arm/bin/../lib/gcc/arm-none-eabi/4.9.3/../../../../arm-none-eabi/lib/armv7e-m/libc.a(lib_a-wctomb_r.o)
 .debug_frame   0x0000cc34       0x28 /home/andrew/bin/gcc-arm/bin/../lib/gcc/arm-none-eabi/4.9.3/armv7e-m/libgcc.a(_aeabi_uldivmod.o)
 .debug_frame   0x0000cc5c       0x50 /home/andrew/bin/gcc-arm/bin/../lib/gcc/arm-none-eabi/4.9.3/armv7e-m/libgcc.a(bpabi.o)
 .debug_frame   0x0000ccac       0x34 /home/andrew/bin/gcc-arm/bin/../lib/gcc/arm-none-eabi/4.9.3/armv7e-m/libgcc.a(_divdi3.o)
 .debug_frame   0x0000cce0       0x30 /home/andrew/bin/gcc-arm/bin/../lib/gcc/arm-none-eabi/4.9.3/armv7e-m/libgcc.a(_udivdi3.o)
 .debug_frame   0x0000cd10       0x20 /home/andrew/bin/gcc-arm/bin/../lib/gcc/arm-none-eabi/4.9.3/../../../../arm-none-eabi/lib/armv7e-m/libnosys.a(close.o)
 .debug_frame   0x0000cd30       0x20 /home/andrew/bin/gcc-arm/bin/../lib/gcc/arm-none-eabi/4.9.3/../../../../arm-none-eabi/lib/armv7e-m/libnosys.a(fstat.o)
 .debug_frame   0x0000cd50       0x20 /home/andrew/bin/gcc-arm/bin/../lib/gcc/arm-none-eabi/4.9.3/../../../../arm-none-eabi/lib/armv7e-m/libnosys.a(isatty.o)
 .debug_frame   0x0000cd70       0x20 /home/andrew/bin/gcc-arm/bin/../lib/gcc/arm-none-eabi/4.9.3/../../../../arm-none-eabi/lib/armv7e-m/libnosys.a(lseek.o)
 .debug_frame   0x0000cd90       0x20 /home/andrew/bin/gcc-arm/bin/../lib/gcc/arm-none-eabi/4.9.3/../../../../arm-none-eabi/lib/armv7e-m/libnosys.a(read.o)
 .debug_frame   0x0000cdb0       0x20 /home/andrew/bin/gcc-arm/bin/../lib/gcc/arm-none-eabi/4.9.3/../../../../arm-none-eabi/lib/armv7e-m/libnosys.a(sbrk.o)
 .debug_frame   0x0000cdd0       0x20 /home/andrew/bin/gcc-arm/bin/../lib/gcc/arm-none-eabi/4.9.3/../../../../arm-none-eabi/lib/armv7e-m/libnosys.a(_exit.o)

.debug_ranges   0x00000000     0x3bf0
 .debug_ranges  0x00000000       0xb8 build/usbh_ctlreq.c.o
 .debug_ranges  0x000000b8       0x60 build/usbh_core.c.o
 .debug_ranges  0x00000118       0xb0 build/usbd_ctlreq.c.o
 .debug_ranges  0x000001c8       0x70 build/usbd_midi.c.o
 .debug_ranges  0x00000238       0x98 build/usbd_conf.c.o
 .debug_ranges  0x000002d0       0x30 build/power_ctrl.c.o
 .debug_ranges  0x00000300       0x88 build/main.c.o
 .debug_ranges  0x00000388       0x38 build/panel_if.c.o
 .debug_ranges  0x000003c0       0x38 build/analog_out.c.o
 .debug_ranges  0x000003f8       0x38 build/debug.c.o
 .debug_ranges  0x00000430       0x48 build/cvproc.c.o
 .debug_ranges  0x00000478       0x78 build/gfx.c.o
 .debug_ranges  0x000004f0       0x68 build/ioctl.c.o
 .debug_ranges  0x00000558       0x88 build/lcd_fsmc_if.c.o
 .debug_ranges  0x000005e0      0x6e0 build/ILI948x_drv.c.o
 .debug_ranges  0x00000cc0      0x5a0 build/gui.c.o
 .debug_ranges  0x00001260       0x20 build/panel.c.o
 .debug_ranges  0x00001280       0x60 build/step_edit.c.o
 .debug_ranges  0x000012e0       0x20 build/song_edit.c.o
 .debug_ranges  0x00001300       0x20 build/config_store.c.o
 .debug_ranges  0x00001320       0x18 build/panel_utils.c.o
 .debug_ranges  0x00001338       0x38 build/spi_flash.c.o
 .debug_ranges  0x00001370       0xd8 build/iface_midi_router.c.o
 .debug_ranges  0x00001448       0x30 build/usbh_midi.c.o
 .debug_ranges  0x00001478       0x80 build/usbh_conf.c.o
 .debug_ranges  0x000014f8       0x40 build/sysex.c.o
 .debug_ranges  0x00001538       0x18 build/pattern.c.o
 .debug_ranges  0x00001550       0xb8 build/arp.c.o
 .debug_ranges  0x00001608      0x240 build/seq_ctrl.c.o
 .debug_ranges  0x00001848      0xcc8 build/arp_progs.c.o
 .debug_ranges  0x00002510       0x50 build/clock.c.o
 .debug_ranges  0x00002560       0x30 build/clock_out.c.o
 .debug_ranges  0x00002590      0x390 build/seq_engine.c.o
 .debug_ranges  0x00002920      0x320 build/song.c.o
 .debug_ranges  0x00002c40       0x48 build/ext_flash.c.o
 .debug_ranges  0x00002c88       0x70 build/din_midi.c.o
 .debug_ranges  0x00002cf8       0x40 build/stm32f4xx_hal_dma_ex.c.o
 .debug_ranges  0x00002d38       0x18 build/stm32f4xx_hal_timebase_tim_template.c.o
 .debug_ranges  0x00002d50      0x100 build/stm32f4xx_hal_hcd.c.o
 .debug_ranges  0x00002e50      0x128 build/stm32f4xx_hal_spi.c.o
 .debug_ranges  0x00002f78      0x2c8 build/stm32f4xx_hal_tim.c.o
 .debug_ranges  0x00003240       0x38 build/stm32f4xx_hal_pcd.c.o
 .debug_ranges  0x00003278       0x20 build/stm32f4xx_hal_gpio.c.o
 .debug_ranges  0x00003298       0x18 build/stm32f4xx_hal_rng.c.o
 .debug_ranges  0x000032b0       0x40 build/stm32f4xx_hal_uart.c.o
 .debug_ranges  0x000032f0       0xf8 build/stm32f4xx_hal_flash_ex.c.o
 .debug_ranges  0x000033e8      0x148 build/stm32f4xx_hal_sd.c.o
 .debug_ranges  0x00003530       0x28 build/stm32f4xx_hal_i2s.c.o
 .debug_ranges  0x00003558       0x30 build/stm32f4xx_hal_pwr_ex.c.o
 .debug_ranges  0x00003588       0x38 build/stm32f4xx_hal_i2s_ex.c.o
 .debug_ranges  0x000035c0       0x20 build/stm32f4xx_ll_usb.c.o
 .debug_ranges  0x000035e0       0x48 build/stm32f4xx_hal_rcc_ex.c.o
 .debug_ranges  0x00003628       0x78 build/stm32f4xx_hal_dma.c.o
 .debug_ranges  0x000036a0      0x160 build/stm32f4xx_hal_rcc.c.o
 .debug_ranges  0x00003800       0x78 build/stm32f4xx_hal_cortex.c.o
 .debug_ranges  0x00003878      0x200 build/stm32f4xx_hal_i2c.c.o
 .debug_ranges  0x00003a78       0xb8 build/stm32f4xx_hal_flash.c.o
 .debug_ranges  0x00003b30       0x28 build/stm32f4xx_hal_adc.c.o
 .debug_ranges  0x00003b58       0x98 build/stm32f4xx_hal_usart.c.o

.stab           0x00000000       0x84
 .stab          0x00000000       0x24 /home/andrew/bin/gcc-arm/bin/../lib/gcc/arm-none-eabi/4.9.3/../../../../arm-none-eabi/lib/armv7e-m/libnosys.a(close.o)
 .stab          0x00000024       0x18 /home/andrew/bin/gcc-arm/bin/../lib/gcc/arm-none-eabi/4.9.3/../../../../arm-none-eabi/lib/armv7e-m/libnosys.a(fstat.o)
                                 0x24 (size before relaxing)
 .stab          0x0000003c       0x18 /home/andrew/bin/gcc-arm/bin/../lib/gcc/arm-none-eabi/4.9.3/../../../../arm-none-eabi/lib/armv7e-m/libnosys.a(isatty.o)
                                 0x24 (size before relaxing)
 .stab          0x00000054       0x18 /home/andrew/bin/gcc-arm/bin/../lib/gcc/arm-none-eabi/4.9.3/../../../../arm-none-eabi/lib/armv7e-m/libnosys.a(lseek.o)
                                 0x24 (size before relaxing)
 .stab          0x0000006c       0x18 /home/andrew/bin/gcc-arm/bin/../lib/gcc/arm-none-eabi/4.9.3/../../../../arm-none-eabi/lib/armv7e-m/libnosys.a(read.o)
                                 0x24 (size before relaxing)

.stabstr        0x00000000      0x117
 .stabstr       0x00000000      0x117 /home/andrew/bin/gcc-arm/bin/../lib/gcc/arm-none-eabi/4.9.3/../../../../arm-none-eabi/lib/armv7e-m/libnosys.a(close.o)
